ARM GAS  C:\Users\BIRDs\AppData\Local\Temp\ccb5wFQ0.s 			page 1


   1              		.cpu cortex-m4
   2              		.arch armv7e-m
   3              		.fpu fpv4-sp-d16
   4              		.eabi_attribute 27, 1
   5              		.eabi_attribute 28, 1
   6              		.eabi_attribute 20, 1
   7              		.eabi_attribute 21, 1
   8              		.eabi_attribute 23, 3
   9              		.eabi_attribute 24, 1
  10              		.eabi_attribute 25, 1
  11              		.eabi_attribute 26, 1
  12              		.eabi_attribute 30, 1
  13              		.eabi_attribute 34, 1
  14              		.eabi_attribute 18, 4
  15              		.file	"stm32g4xx_hal_timebase_tim.c"
  16              		.text
  17              	.Ltext0:
  18              		.cfi_sections	.debug_frame
  19              		.file 1 "Core/Src/stm32g4xx_hal_timebase_tim.c"
  20              		.section	.text.HAL_InitTick,"ax",%progbits
  21              		.align	1
  22              		.global	HAL_InitTick
  23              		.syntax unified
  24              		.thumb
  25              		.thumb_func
  27              	HAL_InitTick:
  28              	.LVL0:
  29              	.LFB329:
   1:Core/Src/stm32g4xx_hal_timebase_tim.c **** /* USER CODE BEGIN Header */
   2:Core/Src/stm32g4xx_hal_timebase_tim.c **** /**
   3:Core/Src/stm32g4xx_hal_timebase_tim.c ****   ******************************************************************************
   4:Core/Src/stm32g4xx_hal_timebase_tim.c ****   * @file    stm32g4xx_hal_timebase_tim.c
   5:Core/Src/stm32g4xx_hal_timebase_tim.c ****   * @brief   HAL time base based on the hardware TIM.
   6:Core/Src/stm32g4xx_hal_timebase_tim.c ****   ******************************************************************************
   7:Core/Src/stm32g4xx_hal_timebase_tim.c ****   * @attention
   8:Core/Src/stm32g4xx_hal_timebase_tim.c ****   *
   9:Core/Src/stm32g4xx_hal_timebase_tim.c ****   * Copyright (c) 2025 STMicroelectronics.
  10:Core/Src/stm32g4xx_hal_timebase_tim.c ****   * All rights reserved.
  11:Core/Src/stm32g4xx_hal_timebase_tim.c ****   *
  12:Core/Src/stm32g4xx_hal_timebase_tim.c ****   * This software is licensed under terms that can be found in the LICENSE file
  13:Core/Src/stm32g4xx_hal_timebase_tim.c ****   * in the root directory of this software component.
  14:Core/Src/stm32g4xx_hal_timebase_tim.c ****   * If no LICENSE file comes with this software, it is provided AS-IS.
  15:Core/Src/stm32g4xx_hal_timebase_tim.c ****   *
  16:Core/Src/stm32g4xx_hal_timebase_tim.c ****   ******************************************************************************
  17:Core/Src/stm32g4xx_hal_timebase_tim.c ****   */
  18:Core/Src/stm32g4xx_hal_timebase_tim.c **** /* USER CODE END Header */
  19:Core/Src/stm32g4xx_hal_timebase_tim.c **** 
  20:Core/Src/stm32g4xx_hal_timebase_tim.c **** /* Includes ------------------------------------------------------------------*/
  21:Core/Src/stm32g4xx_hal_timebase_tim.c **** #include "stm32g4xx_hal.h"
  22:Core/Src/stm32g4xx_hal_timebase_tim.c **** #include "stm32g4xx_hal_tim.h"
  23:Core/Src/stm32g4xx_hal_timebase_tim.c **** 
  24:Core/Src/stm32g4xx_hal_timebase_tim.c **** /* Private typedef -----------------------------------------------------------*/
  25:Core/Src/stm32g4xx_hal_timebase_tim.c **** /* Private define ------------------------------------------------------------*/
  26:Core/Src/stm32g4xx_hal_timebase_tim.c **** /* Private macro -------------------------------------------------------------*/
  27:Core/Src/stm32g4xx_hal_timebase_tim.c **** /* Private variables ---------------------------------------------------------*/
  28:Core/Src/stm32g4xx_hal_timebase_tim.c **** TIM_HandleTypeDef        htim6;
  29:Core/Src/stm32g4xx_hal_timebase_tim.c **** /* Private function prototypes -----------------------------------------------*/
ARM GAS  C:\Users\BIRDs\AppData\Local\Temp\ccb5wFQ0.s 			page 2


  30:Core/Src/stm32g4xx_hal_timebase_tim.c **** /* Private functions ---------------------------------------------------------*/
  31:Core/Src/stm32g4xx_hal_timebase_tim.c **** 
  32:Core/Src/stm32g4xx_hal_timebase_tim.c **** /**
  33:Core/Src/stm32g4xx_hal_timebase_tim.c ****   * @brief  This function configures the TIM6 as a time base source.
  34:Core/Src/stm32g4xx_hal_timebase_tim.c ****   *         The time source is configured  to have 1ms time base with a dedicated
  35:Core/Src/stm32g4xx_hal_timebase_tim.c ****   *         Tick interrupt priority.
  36:Core/Src/stm32g4xx_hal_timebase_tim.c ****   * @note   This function is called  automatically at the beginning of program after
  37:Core/Src/stm32g4xx_hal_timebase_tim.c ****   *         reset by HAL_Init() or at any time when clock is configured, by HAL_RCC_ClockConfig().
  38:Core/Src/stm32g4xx_hal_timebase_tim.c ****   * @param  TickPriority: Tick interrupt priority.
  39:Core/Src/stm32g4xx_hal_timebase_tim.c ****   * @retval HAL status
  40:Core/Src/stm32g4xx_hal_timebase_tim.c ****   */
  41:Core/Src/stm32g4xx_hal_timebase_tim.c **** HAL_StatusTypeDef HAL_InitTick(uint32_t TickPriority)
  42:Core/Src/stm32g4xx_hal_timebase_tim.c **** {
  30              		.loc 1 42 1 view -0
  31              		.cfi_startproc
  32              		@ args = 0, pretend = 0, frame = 32
  33              		@ frame_needed = 0, uses_anonymous_args = 0
  34              		.loc 1 42 1 is_stmt 0 view .LVU1
  35 0000 30B5     		push	{r4, r5, lr}
  36              	.LCFI0:
  37              		.cfi_def_cfa_offset 12
  38              		.cfi_offset 4, -12
  39              		.cfi_offset 5, -8
  40              		.cfi_offset 14, -4
  41 0002 89B0     		sub	sp, sp, #36
  42              	.LCFI1:
  43              		.cfi_def_cfa_offset 48
  44 0004 0446     		mov	r4, r0
  43:Core/Src/stm32g4xx_hal_timebase_tim.c ****   RCC_ClkInitTypeDef    clkconfig;
  45              		.loc 1 43 3 is_stmt 1 view .LVU2
  44:Core/Src/stm32g4xx_hal_timebase_tim.c ****   uint32_t              uwTimclock = 0;
  46              		.loc 1 44 3 view .LVU3
  47              	.LVL1:
  45:Core/Src/stm32g4xx_hal_timebase_tim.c ****   uint32_t              uwPrescalerValue = 0;
  48              		.loc 1 45 3 view .LVU4
  46:Core/Src/stm32g4xx_hal_timebase_tim.c ****   uint32_t              pFLatency;
  49              		.loc 1 46 3 view .LVU5
  47:Core/Src/stm32g4xx_hal_timebase_tim.c ****   HAL_StatusTypeDef     status;
  50              		.loc 1 47 3 view .LVU6
  48:Core/Src/stm32g4xx_hal_timebase_tim.c **** 
  49:Core/Src/stm32g4xx_hal_timebase_tim.c ****   /* Enable TIM6 clock */
  50:Core/Src/stm32g4xx_hal_timebase_tim.c ****   __HAL_RCC_TIM6_CLK_ENABLE();
  51              		.loc 1 50 3 view .LVU7
  52              	.LBB2:
  53              		.loc 1 50 3 view .LVU8
  54              		.loc 1 50 3 view .LVU9
  55 0006 1D4B     		ldr	r3, .L7
  56 0008 9A6D     		ldr	r2, [r3, #88]
  57 000a 42F01002 		orr	r2, r2, #16
  58 000e 9A65     		str	r2, [r3, #88]
  59              		.loc 1 50 3 view .LVU10
  60 0010 9B6D     		ldr	r3, [r3, #88]
  61 0012 03F01003 		and	r3, r3, #16
  62 0016 0193     		str	r3, [sp, #4]
  63              		.loc 1 50 3 view .LVU11
  64 0018 019B     		ldr	r3, [sp, #4]
  65              	.LBE2:
ARM GAS  C:\Users\BIRDs\AppData\Local\Temp\ccb5wFQ0.s 			page 3


  66              		.loc 1 50 3 view .LVU12
  51:Core/Src/stm32g4xx_hal_timebase_tim.c ****   /* Get clock configuration */
  52:Core/Src/stm32g4xx_hal_timebase_tim.c ****   HAL_RCC_GetClockConfig(&clkconfig, &pFLatency);
  67              		.loc 1 52 3 view .LVU13
  68 001a 02A9     		add	r1, sp, #8
  69 001c 03A8     		add	r0, sp, #12
  70              	.LVL2:
  71              		.loc 1 52 3 is_stmt 0 view .LVU14
  72 001e FFF7FEFF 		bl	HAL_RCC_GetClockConfig
  73              	.LVL3:
  53:Core/Src/stm32g4xx_hal_timebase_tim.c ****   /* Compute TIM6 clock */
  54:Core/Src/stm32g4xx_hal_timebase_tim.c ****   uwTimclock = HAL_RCC_GetPCLK1Freq();
  74              		.loc 1 54 3 is_stmt 1 view .LVU15
  75              		.loc 1 54 16 is_stmt 0 view .LVU16
  76 0022 FFF7FEFF 		bl	HAL_RCC_GetPCLK1Freq
  77              	.LVL4:
  55:Core/Src/stm32g4xx_hal_timebase_tim.c **** 
  56:Core/Src/stm32g4xx_hal_timebase_tim.c ****   /* Compute the prescaler value to have TIM6 counter clock equal to 1MHz */
  57:Core/Src/stm32g4xx_hal_timebase_tim.c ****   uwPrescalerValue = (uint32_t) ((uwTimclock / 1000000U) - 1U);
  78              		.loc 1 57 3 is_stmt 1 view .LVU17
  79              		.loc 1 57 46 is_stmt 0 view .LVU18
  80 0026 164A     		ldr	r2, .L7+4
  81 0028 A2FB0023 		umull	r2, r3, r2, r0
  82              	.LVL5:
  83              		.loc 1 57 46 view .LVU19
  84 002c 9B0C     		lsrs	r3, r3, #18
  85              		.loc 1 57 20 view .LVU20
  86 002e 013B     		subs	r3, r3, #1
  87              	.LVL6:
  58:Core/Src/stm32g4xx_hal_timebase_tim.c **** 
  59:Core/Src/stm32g4xx_hal_timebase_tim.c ****   /* Initialize TIM6 */
  60:Core/Src/stm32g4xx_hal_timebase_tim.c ****   htim6.Instance = TIM6;
  88              		.loc 1 60 3 is_stmt 1 view .LVU21
  89              		.loc 1 60 18 is_stmt 0 view .LVU22
  90 0030 1448     		ldr	r0, .L7+8
  91 0032 154A     		ldr	r2, .L7+12
  92 0034 0260     		str	r2, [r0]
  61:Core/Src/stm32g4xx_hal_timebase_tim.c **** 
  62:Core/Src/stm32g4xx_hal_timebase_tim.c ****   /* Initialize TIMx peripheral as follow:
  63:Core/Src/stm32g4xx_hal_timebase_tim.c **** 
  64:Core/Src/stm32g4xx_hal_timebase_tim.c ****   + Period = [(TIM6CLK/1000) - 1]. to have a (1/1000) s time base.
  65:Core/Src/stm32g4xx_hal_timebase_tim.c ****   + Prescaler = (uwTimclock/1000000 - 1) to have a 1MHz counter clock.
  66:Core/Src/stm32g4xx_hal_timebase_tim.c ****   + ClockDivision = 0
  67:Core/Src/stm32g4xx_hal_timebase_tim.c ****   + Counter direction = Up
  68:Core/Src/stm32g4xx_hal_timebase_tim.c ****   */
  69:Core/Src/stm32g4xx_hal_timebase_tim.c ****   htim6.Init.Period = (1000000U / 1000U) - 1U;
  93              		.loc 1 69 3 is_stmt 1 view .LVU23
  94              		.loc 1 69 21 is_stmt 0 view .LVU24
  95 0036 40F2E732 		movw	r2, #999
  96 003a C260     		str	r2, [r0, #12]
  70:Core/Src/stm32g4xx_hal_timebase_tim.c ****   htim6.Init.Prescaler = uwPrescalerValue;
  97              		.loc 1 70 3 is_stmt 1 view .LVU25
  98              		.loc 1 70 24 is_stmt 0 view .LVU26
  99 003c 4360     		str	r3, [r0, #4]
  71:Core/Src/stm32g4xx_hal_timebase_tim.c ****   htim6.Init.ClockDivision = 0;
 100              		.loc 1 71 3 is_stmt 1 view .LVU27
 101              		.loc 1 71 28 is_stmt 0 view .LVU28
ARM GAS  C:\Users\BIRDs\AppData\Local\Temp\ccb5wFQ0.s 			page 4


 102 003e 0023     		movs	r3, #0
 103              	.LVL7:
 104              		.loc 1 71 28 view .LVU29
 105 0040 0361     		str	r3, [r0, #16]
  72:Core/Src/stm32g4xx_hal_timebase_tim.c ****   htim6.Init.CounterMode = TIM_COUNTERMODE_UP;
 106              		.loc 1 72 3 is_stmt 1 view .LVU30
 107              		.loc 1 72 26 is_stmt 0 view .LVU31
 108 0042 8360     		str	r3, [r0, #8]
  73:Core/Src/stm32g4xx_hal_timebase_tim.c **** 
  74:Core/Src/stm32g4xx_hal_timebase_tim.c ****   status = HAL_TIM_Base_Init(&htim6);
 109              		.loc 1 74 3 is_stmt 1 view .LVU32
 110              		.loc 1 74 12 is_stmt 0 view .LVU33
 111 0044 FFF7FEFF 		bl	HAL_TIM_Base_Init
 112              	.LVL8:
  75:Core/Src/stm32g4xx_hal_timebase_tim.c ****   if (status == HAL_OK)
 113              		.loc 1 75 3 is_stmt 1 view .LVU34
 114              		.loc 1 75 6 is_stmt 0 view .LVU35
 115 0048 0546     		mov	r5, r0
 116 004a 10B1     		cbz	r0, .L5
 117              	.LVL9:
 118              	.L2:
  76:Core/Src/stm32g4xx_hal_timebase_tim.c ****   {
  77:Core/Src/stm32g4xx_hal_timebase_tim.c ****     /* Start the TIM time Base generation in interrupt mode */
  78:Core/Src/stm32g4xx_hal_timebase_tim.c ****     status = HAL_TIM_Base_Start_IT(&htim6);
  79:Core/Src/stm32g4xx_hal_timebase_tim.c ****     if (status == HAL_OK)
  80:Core/Src/stm32g4xx_hal_timebase_tim.c ****     {
  81:Core/Src/stm32g4xx_hal_timebase_tim.c ****     /* Enable the TIM6 global Interrupt */
  82:Core/Src/stm32g4xx_hal_timebase_tim.c ****         HAL_NVIC_EnableIRQ(TIM6_DAC_IRQn);
  83:Core/Src/stm32g4xx_hal_timebase_tim.c ****       /* Configure the SysTick IRQ priority */
  84:Core/Src/stm32g4xx_hal_timebase_tim.c ****       if (TickPriority < (1UL << __NVIC_PRIO_BITS))
  85:Core/Src/stm32g4xx_hal_timebase_tim.c ****       {
  86:Core/Src/stm32g4xx_hal_timebase_tim.c ****         /* Configure the TIM IRQ priority */
  87:Core/Src/stm32g4xx_hal_timebase_tim.c ****         HAL_NVIC_SetPriority(TIM6_DAC_IRQn, TickPriority, 0U);
  88:Core/Src/stm32g4xx_hal_timebase_tim.c ****         uwTickPrio = TickPriority;
  89:Core/Src/stm32g4xx_hal_timebase_tim.c ****       }
  90:Core/Src/stm32g4xx_hal_timebase_tim.c ****       else
  91:Core/Src/stm32g4xx_hal_timebase_tim.c ****       {
  92:Core/Src/stm32g4xx_hal_timebase_tim.c ****         status = HAL_ERROR;
  93:Core/Src/stm32g4xx_hal_timebase_tim.c ****       }
  94:Core/Src/stm32g4xx_hal_timebase_tim.c ****     }
  95:Core/Src/stm32g4xx_hal_timebase_tim.c ****   }
  96:Core/Src/stm32g4xx_hal_timebase_tim.c **** 
  97:Core/Src/stm32g4xx_hal_timebase_tim.c ****  /* Return function status */
  98:Core/Src/stm32g4xx_hal_timebase_tim.c ****   return status;
 119              		.loc 1 98 3 is_stmt 1 view .LVU36
  99:Core/Src/stm32g4xx_hal_timebase_tim.c **** }
 120              		.loc 1 99 1 is_stmt 0 view .LVU37
 121 004c 2846     		mov	r0, r5
 122 004e 09B0     		add	sp, sp, #36
 123              	.LCFI2:
 124              		.cfi_remember_state
 125              		.cfi_def_cfa_offset 12
 126              		@ sp needed
 127 0050 30BD     		pop	{r4, r5, pc}
 128              	.LVL10:
 129              	.L5:
 130              	.LCFI3:
ARM GAS  C:\Users\BIRDs\AppData\Local\Temp\ccb5wFQ0.s 			page 5


 131              		.cfi_restore_state
  78:Core/Src/stm32g4xx_hal_timebase_tim.c ****     if (status == HAL_OK)
 132              		.loc 1 78 5 is_stmt 1 view .LVU38
  78:Core/Src/stm32g4xx_hal_timebase_tim.c ****     if (status == HAL_OK)
 133              		.loc 1 78 14 is_stmt 0 view .LVU39
 134 0052 0C48     		ldr	r0, .L7+8
 135              	.LVL11:
  78:Core/Src/stm32g4xx_hal_timebase_tim.c ****     if (status == HAL_OK)
 136              		.loc 1 78 14 view .LVU40
 137 0054 FFF7FEFF 		bl	HAL_TIM_Base_Start_IT
 138              	.LVL12:
  79:Core/Src/stm32g4xx_hal_timebase_tim.c ****     {
 139              		.loc 1 79 5 is_stmt 1 view .LVU41
  79:Core/Src/stm32g4xx_hal_timebase_tim.c ****     {
 140              		.loc 1 79 8 is_stmt 0 view .LVU42
 141 0058 0546     		mov	r5, r0
 142 005a 0028     		cmp	r0, #0
 143 005c F6D1     		bne	.L2
  82:Core/Src/stm32g4xx_hal_timebase_tim.c ****       /* Configure the SysTick IRQ priority */
 144              		.loc 1 82 9 is_stmt 1 view .LVU43
 145 005e 3620     		movs	r0, #54
 146              	.LVL13:
  82:Core/Src/stm32g4xx_hal_timebase_tim.c ****       /* Configure the SysTick IRQ priority */
 147              		.loc 1 82 9 is_stmt 0 view .LVU44
 148 0060 FFF7FEFF 		bl	HAL_NVIC_EnableIRQ
 149              	.LVL14:
  84:Core/Src/stm32g4xx_hal_timebase_tim.c ****       {
 150              		.loc 1 84 7 is_stmt 1 view .LVU45
  84:Core/Src/stm32g4xx_hal_timebase_tim.c ****       {
 151              		.loc 1 84 10 is_stmt 0 view .LVU46
 152 0064 0F2C     		cmp	r4, #15
 153 0066 01D9     		bls	.L6
  92:Core/Src/stm32g4xx_hal_timebase_tim.c ****       }
 154              		.loc 1 92 16 view .LVU47
 155 0068 0125     		movs	r5, #1
 156              	.LVL15:
  92:Core/Src/stm32g4xx_hal_timebase_tim.c ****       }
 157              		.loc 1 92 16 view .LVU48
 158 006a EFE7     		b	.L2
 159              	.LVL16:
 160              	.L6:
  87:Core/Src/stm32g4xx_hal_timebase_tim.c ****         uwTickPrio = TickPriority;
 161              		.loc 1 87 9 is_stmt 1 view .LVU49
 162 006c 0022     		movs	r2, #0
 163 006e 2146     		mov	r1, r4
 164 0070 3620     		movs	r0, #54
 165 0072 FFF7FEFF 		bl	HAL_NVIC_SetPriority
 166              	.LVL17:
  88:Core/Src/stm32g4xx_hal_timebase_tim.c ****       }
 167              		.loc 1 88 9 view .LVU50
  88:Core/Src/stm32g4xx_hal_timebase_tim.c ****       }
 168              		.loc 1 88 20 is_stmt 0 view .LVU51
 169 0076 054B     		ldr	r3, .L7+16
 170 0078 1C60     		str	r4, [r3]
 171 007a E7E7     		b	.L2
 172              	.L8:
 173              		.align	2
ARM GAS  C:\Users\BIRDs\AppData\Local\Temp\ccb5wFQ0.s 			page 6


 174              	.L7:
 175 007c 00100240 		.word	1073876992
 176 0080 83DE1B43 		.word	1125899907
 177 0084 00000000 		.word	htim6
 178 0088 00100040 		.word	1073745920
 179 008c 00000000 		.word	uwTickPrio
 180              		.cfi_endproc
 181              	.LFE329:
 183              		.section	.text.HAL_SuspendTick,"ax",%progbits
 184              		.align	1
 185              		.global	HAL_SuspendTick
 186              		.syntax unified
 187              		.thumb
 188              		.thumb_func
 190              	HAL_SuspendTick:
 191              	.LFB330:
 100:Core/Src/stm32g4xx_hal_timebase_tim.c **** 
 101:Core/Src/stm32g4xx_hal_timebase_tim.c **** /**
 102:Core/Src/stm32g4xx_hal_timebase_tim.c ****   * @brief  Suspend Tick increment.
 103:Core/Src/stm32g4xx_hal_timebase_tim.c ****   * @note   Disable the tick increment by disabling TIM6 update interrupt.
 104:Core/Src/stm32g4xx_hal_timebase_tim.c ****   * @param  None
 105:Core/Src/stm32g4xx_hal_timebase_tim.c ****   * @retval None
 106:Core/Src/stm32g4xx_hal_timebase_tim.c ****   */
 107:Core/Src/stm32g4xx_hal_timebase_tim.c **** void HAL_SuspendTick(void)
 108:Core/Src/stm32g4xx_hal_timebase_tim.c **** {
 192              		.loc 1 108 1 is_stmt 1 view -0
 193              		.cfi_startproc
 194              		@ args = 0, pretend = 0, frame = 0
 195              		@ frame_needed = 0, uses_anonymous_args = 0
 196              		@ link register save eliminated.
 109:Core/Src/stm32g4xx_hal_timebase_tim.c ****   /* Disable TIM6 update Interrupt */
 110:Core/Src/stm32g4xx_hal_timebase_tim.c ****   __HAL_TIM_DISABLE_IT(&htim6, TIM_IT_UPDATE);
 197              		.loc 1 110 3 view .LVU53
 198 0000 034B     		ldr	r3, .L10
 199 0002 1A68     		ldr	r2, [r3]
 200 0004 D368     		ldr	r3, [r2, #12]
 201 0006 23F00103 		bic	r3, r3, #1
 202 000a D360     		str	r3, [r2, #12]
 111:Core/Src/stm32g4xx_hal_timebase_tim.c **** }
 203              		.loc 1 111 1 is_stmt 0 view .LVU54
 204 000c 7047     		bx	lr
 205              	.L11:
 206 000e 00BF     		.align	2
 207              	.L10:
 208 0010 00000000 		.word	htim6
 209              		.cfi_endproc
 210              	.LFE330:
 212              		.section	.text.HAL_ResumeTick,"ax",%progbits
 213              		.align	1
 214              		.global	HAL_ResumeTick
 215              		.syntax unified
 216              		.thumb
 217              		.thumb_func
 219              	HAL_ResumeTick:
 220              	.LFB331:
 112:Core/Src/stm32g4xx_hal_timebase_tim.c **** 
 113:Core/Src/stm32g4xx_hal_timebase_tim.c **** /**
ARM GAS  C:\Users\BIRDs\AppData\Local\Temp\ccb5wFQ0.s 			page 7


 114:Core/Src/stm32g4xx_hal_timebase_tim.c ****   * @brief  Resume Tick increment.
 115:Core/Src/stm32g4xx_hal_timebase_tim.c ****   * @note   Enable the tick increment by Enabling TIM6 update interrupt.
 116:Core/Src/stm32g4xx_hal_timebase_tim.c ****   * @param  None
 117:Core/Src/stm32g4xx_hal_timebase_tim.c ****   * @retval None
 118:Core/Src/stm32g4xx_hal_timebase_tim.c ****   */
 119:Core/Src/stm32g4xx_hal_timebase_tim.c **** void HAL_ResumeTick(void)
 120:Core/Src/stm32g4xx_hal_timebase_tim.c **** {
 221              		.loc 1 120 1 is_stmt 1 view -0
 222              		.cfi_startproc
 223              		@ args = 0, pretend = 0, frame = 0
 224              		@ frame_needed = 0, uses_anonymous_args = 0
 225              		@ link register save eliminated.
 121:Core/Src/stm32g4xx_hal_timebase_tim.c ****   /* Enable TIM6 Update interrupt */
 122:Core/Src/stm32g4xx_hal_timebase_tim.c ****   __HAL_TIM_ENABLE_IT(&htim6, TIM_IT_UPDATE);
 226              		.loc 1 122 3 view .LVU56
 227 0000 034B     		ldr	r3, .L13
 228 0002 1A68     		ldr	r2, [r3]
 229 0004 D368     		ldr	r3, [r2, #12]
 230 0006 43F00103 		orr	r3, r3, #1
 231 000a D360     		str	r3, [r2, #12]
 123:Core/Src/stm32g4xx_hal_timebase_tim.c **** }
 232              		.loc 1 123 1 is_stmt 0 view .LVU57
 233 000c 7047     		bx	lr
 234              	.L14:
 235 000e 00BF     		.align	2
 236              	.L13:
 237 0010 00000000 		.word	htim6
 238              		.cfi_endproc
 239              	.LFE331:
 241              		.global	htim6
 242              		.section	.bss.htim6,"aw",%nobits
 243              		.align	2
 246              	htim6:
 247 0000 00000000 		.space	76
 247      00000000 
 247      00000000 
 247      00000000 
 247      00000000 
 248              		.text
 249              	.Letext0:
 250              		.file 2 "Drivers/CMSIS/Device/ST/STM32G4xx/Include/stm32g431xx.h"
 251              		.file 3 "E:/VSCODE_TOOL/arm-gnu-toolchain-14.2.rel1-mingw-w64-i686-arm-none-eabi/arm-none-eabi/inc
 252              		.file 4 "E:/VSCODE_TOOL/arm-gnu-toolchain-14.2.rel1-mingw-w64-i686-arm-none-eabi/arm-none-eabi/inc
 253              		.file 5 "Drivers/STM32G4xx_HAL_Driver/Inc/stm32g4xx_hal_def.h"
 254              		.file 6 "Drivers/STM32G4xx_HAL_Driver/Inc/stm32g4xx_hal_rcc.h"
 255              		.file 7 "Drivers/STM32G4xx_HAL_Driver/Inc/stm32g4xx_hal_dma.h"
 256              		.file 8 "Drivers/STM32G4xx_HAL_Driver/Inc/stm32g4xx_hal_tim.h"
 257              		.file 9 "Drivers/STM32G4xx_HAL_Driver/Inc/stm32g4xx_hal.h"
 258              		.file 10 "Drivers/STM32G4xx_HAL_Driver/Inc/stm32g4xx_hal_cortex.h"
ARM GAS  C:\Users\BIRDs\AppData\Local\Temp\ccb5wFQ0.s 			page 8

