ARM GAS  C:\Users\BIRDs\AppData\Local\Temp\ccJc2eCW.s 			page 1


   1              		.cpu cortex-m4
   2              		.arch armv7e-m
   3              		.fpu fpv4-sp-d16
   4              		.eabi_attribute 27, 1
   5              		.eabi_attribute 28, 1
   6              		.eabi_attribute 20, 1
   7              		.eabi_attribute 21, 1
   8              		.eabi_attribute 23, 3
   9              		.eabi_attribute 24, 1
  10              		.eabi_attribute 25, 1
  11              		.eabi_attribute 26, 1
  12              		.eabi_attribute 30, 1
  13              		.eabi_attribute 34, 1
  14              		.eabi_attribute 18, 4
  15              		.file	"usart.c"
  16              		.text
  17              	.Ltext0:
  18              		.cfi_sections	.debug_frame
  19              		.file 1 "Core/Src/usart.c"
  20              		.section	.text.MX_USART1_UART_Init,"ax",%progbits
  21              		.align	1
  22              		.global	MX_USART1_UART_Init
  23              		.syntax unified
  24              		.thumb
  25              		.thumb_func
  27              	MX_USART1_UART_Init:
  28              	.LFB329:
   1:Core/Src/usart.c **** /* USER CODE BEGIN Header */
   2:Core/Src/usart.c **** /**
   3:Core/Src/usart.c ****   ******************************************************************************
   4:Core/Src/usart.c ****   * @file    usart.c
   5:Core/Src/usart.c ****   * @brief   This file provides code for the configuration
   6:Core/Src/usart.c ****   *          of the USART instances.
   7:Core/Src/usart.c ****   ******************************************************************************
   8:Core/Src/usart.c ****   * @attention
   9:Core/Src/usart.c ****   *
  10:Core/Src/usart.c ****   * Copyright (c) 2025 STMicroelectronics.
  11:Core/Src/usart.c ****   * All rights reserved.
  12:Core/Src/usart.c ****   *
  13:Core/Src/usart.c ****   * This software is licensed under terms that can be found in the LICENSE file
  14:Core/Src/usart.c ****   * in the root directory of this software component.
  15:Core/Src/usart.c ****   * If no LICENSE file comes with this software, it is provided AS-IS.
  16:Core/Src/usart.c ****   *
  17:Core/Src/usart.c ****   ******************************************************************************
  18:Core/Src/usart.c ****   */
  19:Core/Src/usart.c **** /* USER CODE END Header */
  20:Core/Src/usart.c **** /* Includes ------------------------------------------------------------------*/
  21:Core/Src/usart.c **** #include "usart.h"
  22:Core/Src/usart.c **** 
  23:Core/Src/usart.c **** /* USER CODE BEGIN 0 */
  24:Core/Src/usart.c **** 
  25:Core/Src/usart.c **** /* USER CODE END 0 */
  26:Core/Src/usart.c **** 
  27:Core/Src/usart.c **** UART_HandleTypeDef huart1;
  28:Core/Src/usart.c **** UART_HandleTypeDef huart2;
  29:Core/Src/usart.c **** DMA_HandleTypeDef hdma_usart1_tx;
  30:Core/Src/usart.c **** DMA_HandleTypeDef hdma_usart1_rx;
ARM GAS  C:\Users\BIRDs\AppData\Local\Temp\ccJc2eCW.s 			page 2


  31:Core/Src/usart.c **** DMA_HandleTypeDef hdma_usart2_rx;
  32:Core/Src/usart.c **** DMA_HandleTypeDef hdma_usart2_tx;
  33:Core/Src/usart.c **** 
  34:Core/Src/usart.c **** /* USART1 init function */
  35:Core/Src/usart.c **** 
  36:Core/Src/usart.c **** void MX_USART1_UART_Init(void)
  37:Core/Src/usart.c **** {
  29              		.loc 1 37 1 view -0
  30              		.cfi_startproc
  31              		@ args = 0, pretend = 0, frame = 0
  32              		@ frame_needed = 0, uses_anonymous_args = 0
  33 0000 08B5     		push	{r3, lr}
  34              	.LCFI0:
  35              		.cfi_def_cfa_offset 8
  36              		.cfi_offset 3, -8
  37              		.cfi_offset 14, -4
  38:Core/Src/usart.c **** 
  39:Core/Src/usart.c ****   /* USER CODE BEGIN USART1_Init 0 */
  40:Core/Src/usart.c **** 
  41:Core/Src/usart.c ****   /* USER CODE END USART1_Init 0 */
  42:Core/Src/usart.c **** 
  43:Core/Src/usart.c ****   /* USER CODE BEGIN USART1_Init 1 */
  44:Core/Src/usart.c **** 
  45:Core/Src/usart.c ****   /* USER CODE END USART1_Init 1 */
  46:Core/Src/usart.c ****   huart1.Instance = USART1;
  38              		.loc 1 46 3 view .LVU1
  39              		.loc 1 46 19 is_stmt 0 view .LVU2
  40 0002 1748     		ldr	r0, .L11
  41 0004 174B     		ldr	r3, .L11+4
  42 0006 0360     		str	r3, [r0]
  47:Core/Src/usart.c ****   huart1.Init.BaudRate = 115200;
  43              		.loc 1 47 3 is_stmt 1 view .LVU3
  44              		.loc 1 47 24 is_stmt 0 view .LVU4
  45 0008 4FF4E133 		mov	r3, #115200
  46 000c 4360     		str	r3, [r0, #4]
  48:Core/Src/usart.c ****   huart1.Init.WordLength = UART_WORDLENGTH_8B;
  47              		.loc 1 48 3 is_stmt 1 view .LVU5
  48              		.loc 1 48 26 is_stmt 0 view .LVU6
  49 000e 0023     		movs	r3, #0
  50 0010 8360     		str	r3, [r0, #8]
  49:Core/Src/usart.c ****   huart1.Init.StopBits = UART_STOPBITS_1;
  51              		.loc 1 49 3 is_stmt 1 view .LVU7
  52              		.loc 1 49 24 is_stmt 0 view .LVU8
  53 0012 C360     		str	r3, [r0, #12]
  50:Core/Src/usart.c ****   huart1.Init.Parity = UART_PARITY_NONE;
  54              		.loc 1 50 3 is_stmt 1 view .LVU9
  55              		.loc 1 50 22 is_stmt 0 view .LVU10
  56 0014 0361     		str	r3, [r0, #16]
  51:Core/Src/usart.c ****   huart1.Init.Mode = UART_MODE_TX_RX;
  57              		.loc 1 51 3 is_stmt 1 view .LVU11
  58              		.loc 1 51 20 is_stmt 0 view .LVU12
  59 0016 0C22     		movs	r2, #12
  60 0018 4261     		str	r2, [r0, #20]
  52:Core/Src/usart.c ****   huart1.Init.HwFlowCtl = UART_HWCONTROL_NONE;
  61              		.loc 1 52 3 is_stmt 1 view .LVU13
  62              		.loc 1 52 25 is_stmt 0 view .LVU14
  63 001a 8361     		str	r3, [r0, #24]
ARM GAS  C:\Users\BIRDs\AppData\Local\Temp\ccJc2eCW.s 			page 3


  53:Core/Src/usart.c ****   huart1.Init.OverSampling = UART_OVERSAMPLING_16;
  64              		.loc 1 53 3 is_stmt 1 view .LVU15
  65              		.loc 1 53 28 is_stmt 0 view .LVU16
  66 001c C361     		str	r3, [r0, #28]
  54:Core/Src/usart.c ****   huart1.Init.OneBitSampling = UART_ONE_BIT_SAMPLE_DISABLE;
  67              		.loc 1 54 3 is_stmt 1 view .LVU17
  68              		.loc 1 54 30 is_stmt 0 view .LVU18
  69 001e 0362     		str	r3, [r0, #32]
  55:Core/Src/usart.c ****   huart1.Init.ClockPrescaler = UART_PRESCALER_DIV1;
  70              		.loc 1 55 3 is_stmt 1 view .LVU19
  71              		.loc 1 55 30 is_stmt 0 view .LVU20
  72 0020 4362     		str	r3, [r0, #36]
  56:Core/Src/usart.c ****   huart1.AdvancedInit.AdvFeatureInit = UART_ADVFEATURE_NO_INIT;
  73              		.loc 1 56 3 is_stmt 1 view .LVU21
  74              		.loc 1 56 38 is_stmt 0 view .LVU22
  75 0022 8362     		str	r3, [r0, #40]
  57:Core/Src/usart.c ****   if (HAL_UART_Init(&huart1) != HAL_OK)
  76              		.loc 1 57 3 is_stmt 1 view .LVU23
  77              		.loc 1 57 7 is_stmt 0 view .LVU24
  78 0024 FFF7FEFF 		bl	HAL_UART_Init
  79              	.LVL0:
  80              		.loc 1 57 6 discriminator 1 view .LVU25
  81 0028 70B9     		cbnz	r0, .L7
  82              	.L2:
  58:Core/Src/usart.c ****   {
  59:Core/Src/usart.c ****     Error_Handler();
  60:Core/Src/usart.c ****   }
  61:Core/Src/usart.c ****   if (HAL_UARTEx_SetTxFifoThreshold(&huart1, UART_TXFIFO_THRESHOLD_1_8) != HAL_OK)
  83              		.loc 1 61 3 is_stmt 1 view .LVU26
  84              		.loc 1 61 7 is_stmt 0 view .LVU27
  85 002a 0021     		movs	r1, #0
  86 002c 0C48     		ldr	r0, .L11
  87 002e FFF7FEFF 		bl	HAL_UARTEx_SetTxFifoThreshold
  88              	.LVL1:
  89              		.loc 1 61 6 discriminator 1 view .LVU28
  90 0032 60B9     		cbnz	r0, .L8
  91              	.L3:
  62:Core/Src/usart.c ****   {
  63:Core/Src/usart.c ****     Error_Handler();
  64:Core/Src/usart.c ****   }
  65:Core/Src/usart.c ****   if (HAL_UARTEx_SetRxFifoThreshold(&huart1, UART_RXFIFO_THRESHOLD_1_8) != HAL_OK)
  92              		.loc 1 65 3 is_stmt 1 view .LVU29
  93              		.loc 1 65 7 is_stmt 0 view .LVU30
  94 0034 0021     		movs	r1, #0
  95 0036 0A48     		ldr	r0, .L11
  96 0038 FFF7FEFF 		bl	HAL_UARTEx_SetRxFifoThreshold
  97              	.LVL2:
  98              		.loc 1 65 6 discriminator 1 view .LVU31
  99 003c 50B9     		cbnz	r0, .L9
 100              	.L4:
  66:Core/Src/usart.c ****   {
  67:Core/Src/usart.c ****     Error_Handler();
  68:Core/Src/usart.c ****   }
  69:Core/Src/usart.c ****   if (HAL_UARTEx_DisableFifoMode(&huart1) != HAL_OK)
 101              		.loc 1 69 3 is_stmt 1 view .LVU32
 102              		.loc 1 69 7 is_stmt 0 view .LVU33
 103 003e 0848     		ldr	r0, .L11
ARM GAS  C:\Users\BIRDs\AppData\Local\Temp\ccJc2eCW.s 			page 4


 104 0040 FFF7FEFF 		bl	HAL_UARTEx_DisableFifoMode
 105              	.LVL3:
 106              		.loc 1 69 6 discriminator 1 view .LVU34
 107 0044 48B9     		cbnz	r0, .L10
 108              	.L1:
  70:Core/Src/usart.c ****   {
  71:Core/Src/usart.c ****     Error_Handler();
  72:Core/Src/usart.c ****   }
  73:Core/Src/usart.c ****   /* USER CODE BEGIN USART1_Init 2 */
  74:Core/Src/usart.c **** 
  75:Core/Src/usart.c ****   /* USER CODE END USART1_Init 2 */
  76:Core/Src/usart.c **** 
  77:Core/Src/usart.c **** }
 109              		.loc 1 77 1 view .LVU35
 110 0046 08BD     		pop	{r3, pc}
 111              	.L7:
  59:Core/Src/usart.c ****   }
 112              		.loc 1 59 5 is_stmt 1 view .LVU36
 113 0048 FFF7FEFF 		bl	Error_Handler
 114              	.LVL4:
 115 004c EDE7     		b	.L2
 116              	.L8:
  63:Core/Src/usart.c ****   }
 117              		.loc 1 63 5 view .LVU37
 118 004e FFF7FEFF 		bl	Error_Handler
 119              	.LVL5:
 120 0052 EFE7     		b	.L3
 121              	.L9:
  67:Core/Src/usart.c ****   }
 122              		.loc 1 67 5 view .LVU38
 123 0054 FFF7FEFF 		bl	Error_Handler
 124              	.LVL6:
 125 0058 F1E7     		b	.L4
 126              	.L10:
  71:Core/Src/usart.c ****   }
 127              		.loc 1 71 5 view .LVU39
 128 005a FFF7FEFF 		bl	Error_Handler
 129              	.LVL7:
 130              		.loc 1 77 1 is_stmt 0 view .LVU40
 131 005e F2E7     		b	.L1
 132              	.L12:
 133              		.align	2
 134              	.L11:
 135 0060 00000000 		.word	huart1
 136 0064 00380140 		.word	1073821696
 137              		.cfi_endproc
 138              	.LFE329:
 140              		.section	.text.MX_USART2_UART_Init,"ax",%progbits
 141              		.align	1
 142              		.global	MX_USART2_UART_Init
 143              		.syntax unified
 144              		.thumb
 145              		.thumb_func
 147              	MX_USART2_UART_Init:
 148              	.LFB330:
  78:Core/Src/usart.c **** /* USART2 init function */
  79:Core/Src/usart.c **** 
ARM GAS  C:\Users\BIRDs\AppData\Local\Temp\ccJc2eCW.s 			page 5


  80:Core/Src/usart.c **** void MX_USART2_UART_Init(void)
  81:Core/Src/usart.c **** {
 149              		.loc 1 81 1 is_stmt 1 view -0
 150              		.cfi_startproc
 151              		@ args = 0, pretend = 0, frame = 0
 152              		@ frame_needed = 0, uses_anonymous_args = 0
 153 0000 08B5     		push	{r3, lr}
 154              	.LCFI1:
 155              		.cfi_def_cfa_offset 8
 156              		.cfi_offset 3, -8
 157              		.cfi_offset 14, -4
  82:Core/Src/usart.c **** 
  83:Core/Src/usart.c ****   /* USER CODE BEGIN USART2_Init 0 */
  84:Core/Src/usart.c **** 
  85:Core/Src/usart.c ****   /* USER CODE END USART2_Init 0 */
  86:Core/Src/usart.c **** 
  87:Core/Src/usart.c ****   /* USER CODE BEGIN USART2_Init 1 */
  88:Core/Src/usart.c **** 
  89:Core/Src/usart.c ****   /* USER CODE END USART2_Init 1 */
  90:Core/Src/usart.c ****   huart2.Instance = USART2;
 158              		.loc 1 90 3 view .LVU42
 159              		.loc 1 90 19 is_stmt 0 view .LVU43
 160 0002 1748     		ldr	r0, .L23
 161 0004 174B     		ldr	r3, .L23+4
 162 0006 0360     		str	r3, [r0]
  91:Core/Src/usart.c ****   huart2.Init.BaudRate = 115200;
 163              		.loc 1 91 3 is_stmt 1 view .LVU44
 164              		.loc 1 91 24 is_stmt 0 view .LVU45
 165 0008 4FF4E133 		mov	r3, #115200
 166 000c 4360     		str	r3, [r0, #4]
  92:Core/Src/usart.c ****   huart2.Init.WordLength = UART_WORDLENGTH_8B;
 167              		.loc 1 92 3 is_stmt 1 view .LVU46
 168              		.loc 1 92 26 is_stmt 0 view .LVU47
 169 000e 0023     		movs	r3, #0
 170 0010 8360     		str	r3, [r0, #8]
  93:Core/Src/usart.c ****   huart2.Init.StopBits = UART_STOPBITS_1;
 171              		.loc 1 93 3 is_stmt 1 view .LVU48
 172              		.loc 1 93 24 is_stmt 0 view .LVU49
 173 0012 C360     		str	r3, [r0, #12]
  94:Core/Src/usart.c ****   huart2.Init.Parity = UART_PARITY_NONE;
 174              		.loc 1 94 3 is_stmt 1 view .LVU50
 175              		.loc 1 94 22 is_stmt 0 view .LVU51
 176 0014 0361     		str	r3, [r0, #16]
  95:Core/Src/usart.c ****   huart2.Init.Mode = UART_MODE_TX_RX;
 177              		.loc 1 95 3 is_stmt 1 view .LVU52
 178              		.loc 1 95 20 is_stmt 0 view .LVU53
 179 0016 0C22     		movs	r2, #12
 180 0018 4261     		str	r2, [r0, #20]
  96:Core/Src/usart.c ****   huart2.Init.HwFlowCtl = UART_HWCONTROL_NONE;
 181              		.loc 1 96 3 is_stmt 1 view .LVU54
 182              		.loc 1 96 25 is_stmt 0 view .LVU55
 183 001a 8361     		str	r3, [r0, #24]
  97:Core/Src/usart.c ****   huart2.Init.OverSampling = UART_OVERSAMPLING_16;
 184              		.loc 1 97 3 is_stmt 1 view .LVU56
 185              		.loc 1 97 28 is_stmt 0 view .LVU57
 186 001c C361     		str	r3, [r0, #28]
  98:Core/Src/usart.c ****   huart2.Init.OneBitSampling = UART_ONE_BIT_SAMPLE_DISABLE;
ARM GAS  C:\Users\BIRDs\AppData\Local\Temp\ccJc2eCW.s 			page 6


 187              		.loc 1 98 3 is_stmt 1 view .LVU58
 188              		.loc 1 98 30 is_stmt 0 view .LVU59
 189 001e 0362     		str	r3, [r0, #32]
  99:Core/Src/usart.c ****   huart2.Init.ClockPrescaler = UART_PRESCALER_DIV1;
 190              		.loc 1 99 3 is_stmt 1 view .LVU60
 191              		.loc 1 99 30 is_stmt 0 view .LVU61
 192 0020 4362     		str	r3, [r0, #36]
 100:Core/Src/usart.c ****   huart2.AdvancedInit.AdvFeatureInit = UART_ADVFEATURE_NO_INIT;
 193              		.loc 1 100 3 is_stmt 1 view .LVU62
 194              		.loc 1 100 38 is_stmt 0 view .LVU63
 195 0022 8362     		str	r3, [r0, #40]
 101:Core/Src/usart.c ****   if (HAL_UART_Init(&huart2) != HAL_OK)
 196              		.loc 1 101 3 is_stmt 1 view .LVU64
 197              		.loc 1 101 7 is_stmt 0 view .LVU65
 198 0024 FFF7FEFF 		bl	HAL_UART_Init
 199              	.LVL8:
 200              		.loc 1 101 6 discriminator 1 view .LVU66
 201 0028 70B9     		cbnz	r0, .L19
 202              	.L14:
 102:Core/Src/usart.c ****   {
 103:Core/Src/usart.c ****     Error_Handler();
 104:Core/Src/usart.c ****   }
 105:Core/Src/usart.c ****   if (HAL_UARTEx_SetTxFifoThreshold(&huart2, UART_TXFIFO_THRESHOLD_1_8) != HAL_OK)
 203              		.loc 1 105 3 is_stmt 1 view .LVU67
 204              		.loc 1 105 7 is_stmt 0 view .LVU68
 205 002a 0021     		movs	r1, #0
 206 002c 0C48     		ldr	r0, .L23
 207 002e FFF7FEFF 		bl	HAL_UARTEx_SetTxFifoThreshold
 208              	.LVL9:
 209              		.loc 1 105 6 discriminator 1 view .LVU69
 210 0032 60B9     		cbnz	r0, .L20
 211              	.L15:
 106:Core/Src/usart.c ****   {
 107:Core/Src/usart.c ****     Error_Handler();
 108:Core/Src/usart.c ****   }
 109:Core/Src/usart.c ****   if (HAL_UARTEx_SetRxFifoThreshold(&huart2, UART_RXFIFO_THRESHOLD_1_8) != HAL_OK)
 212              		.loc 1 109 3 is_stmt 1 view .LVU70
 213              		.loc 1 109 7 is_stmt 0 view .LVU71
 214 0034 0021     		movs	r1, #0
 215 0036 0A48     		ldr	r0, .L23
 216 0038 FFF7FEFF 		bl	HAL_UARTEx_SetRxFifoThreshold
 217              	.LVL10:
 218              		.loc 1 109 6 discriminator 1 view .LVU72
 219 003c 50B9     		cbnz	r0, .L21
 220              	.L16:
 110:Core/Src/usart.c ****   {
 111:Core/Src/usart.c ****     Error_Handler();
 112:Core/Src/usart.c ****   }
 113:Core/Src/usart.c ****   if (HAL_UARTEx_DisableFifoMode(&huart2) != HAL_OK)
 221              		.loc 1 113 3 is_stmt 1 view .LVU73
 222              		.loc 1 113 7 is_stmt 0 view .LVU74
 223 003e 0848     		ldr	r0, .L23
 224 0040 FFF7FEFF 		bl	HAL_UARTEx_DisableFifoMode
 225              	.LVL11:
 226              		.loc 1 113 6 discriminator 1 view .LVU75
 227 0044 48B9     		cbnz	r0, .L22
 228              	.L13:
ARM GAS  C:\Users\BIRDs\AppData\Local\Temp\ccJc2eCW.s 			page 7


 114:Core/Src/usart.c ****   {
 115:Core/Src/usart.c ****     Error_Handler();
 116:Core/Src/usart.c ****   }
 117:Core/Src/usart.c ****   /* USER CODE BEGIN USART2_Init 2 */
 118:Core/Src/usart.c **** 
 119:Core/Src/usart.c ****   /* USER CODE END USART2_Init 2 */
 120:Core/Src/usart.c **** 
 121:Core/Src/usart.c **** }
 229              		.loc 1 121 1 view .LVU76
 230 0046 08BD     		pop	{r3, pc}
 231              	.L19:
 103:Core/Src/usart.c ****   }
 232              		.loc 1 103 5 is_stmt 1 view .LVU77
 233 0048 FFF7FEFF 		bl	Error_Handler
 234              	.LVL12:
 235 004c EDE7     		b	.L14
 236              	.L20:
 107:Core/Src/usart.c ****   }
 237              		.loc 1 107 5 view .LVU78
 238 004e FFF7FEFF 		bl	Error_Handler
 239              	.LVL13:
 240 0052 EFE7     		b	.L15
 241              	.L21:
 111:Core/Src/usart.c ****   }
 242              		.loc 1 111 5 view .LVU79
 243 0054 FFF7FEFF 		bl	Error_Handler
 244              	.LVL14:
 245 0058 F1E7     		b	.L16
 246              	.L22:
 115:Core/Src/usart.c ****   }
 247              		.loc 1 115 5 view .LVU80
 248 005a FFF7FEFF 		bl	Error_Handler
 249              	.LVL15:
 250              		.loc 1 121 1 is_stmt 0 view .LVU81
 251 005e F2E7     		b	.L13
 252              	.L24:
 253              		.align	2
 254              	.L23:
 255 0060 00000000 		.word	huart2
 256 0064 00440040 		.word	1073759232
 257              		.cfi_endproc
 258              	.LFE330:
 260              		.section	.text.HAL_UART_MspInit,"ax",%progbits
 261              		.align	1
 262              		.global	HAL_UART_MspInit
 263              		.syntax unified
 264              		.thumb
 265              		.thumb_func
 267              	HAL_UART_MspInit:
 268              	.LVL16:
 269              	.LFB331:
 122:Core/Src/usart.c **** 
 123:Core/Src/usart.c **** void HAL_UART_MspInit(UART_HandleTypeDef* uartHandle)
 124:Core/Src/usart.c **** {
 270              		.loc 1 124 1 is_stmt 1 view -0
 271              		.cfi_startproc
 272              		@ args = 0, pretend = 0, frame = 104
ARM GAS  C:\Users\BIRDs\AppData\Local\Temp\ccJc2eCW.s 			page 8


 273              		@ frame_needed = 0, uses_anonymous_args = 0
 274              		.loc 1 124 1 is_stmt 0 view .LVU83
 275 0000 30B5     		push	{r4, r5, lr}
 276              	.LCFI2:
 277              		.cfi_def_cfa_offset 12
 278              		.cfi_offset 4, -12
 279              		.cfi_offset 5, -8
 280              		.cfi_offset 14, -4
 281 0002 9BB0     		sub	sp, sp, #108
 282              	.LCFI3:
 283              		.cfi_def_cfa_offset 120
 284 0004 0446     		mov	r4, r0
 125:Core/Src/usart.c **** 
 126:Core/Src/usart.c ****   GPIO_InitTypeDef GPIO_InitStruct = {0};
 285              		.loc 1 126 3 is_stmt 1 view .LVU84
 286              		.loc 1 126 20 is_stmt 0 view .LVU85
 287 0006 0021     		movs	r1, #0
 288 0008 1591     		str	r1, [sp, #84]
 289 000a 1691     		str	r1, [sp, #88]
 290 000c 1791     		str	r1, [sp, #92]
 291 000e 1891     		str	r1, [sp, #96]
 292 0010 1991     		str	r1, [sp, #100]
 127:Core/Src/usart.c ****   RCC_PeriphCLKInitTypeDef PeriphClkInit = {0};
 293              		.loc 1 127 3 is_stmt 1 view .LVU86
 294              		.loc 1 127 28 is_stmt 0 view .LVU87
 295 0012 4422     		movs	r2, #68
 296 0014 04A8     		add	r0, sp, #16
 297              	.LVL17:
 298              		.loc 1 127 28 view .LVU88
 299 0016 FFF7FEFF 		bl	memset
 300              	.LVL18:
 128:Core/Src/usart.c ****   if(uartHandle->Instance==USART1)
 301              		.loc 1 128 3 is_stmt 1 view .LVU89
 302              		.loc 1 128 16 is_stmt 0 view .LVU90
 303 001a 2368     		ldr	r3, [r4]
 304              		.loc 1 128 5 view .LVU91
 305 001c 664A     		ldr	r2, .L43
 306 001e 9342     		cmp	r3, r2
 307 0020 04D0     		beq	.L35
 129:Core/Src/usart.c ****   {
 130:Core/Src/usart.c ****   /* USER CODE BEGIN USART1_MspInit 0 */
 131:Core/Src/usart.c **** 
 132:Core/Src/usart.c ****   /* USER CODE END USART1_MspInit 0 */
 133:Core/Src/usart.c **** 
 134:Core/Src/usart.c ****   /** Initializes the peripherals clocks
 135:Core/Src/usart.c ****   */
 136:Core/Src/usart.c ****     PeriphClkInit.PeriphClockSelection = RCC_PERIPHCLK_USART1;
 137:Core/Src/usart.c ****     PeriphClkInit.Usart1ClockSelection = RCC_USART1CLKSOURCE_PCLK2;
 138:Core/Src/usart.c ****     if (HAL_RCCEx_PeriphCLKConfig(&PeriphClkInit) != HAL_OK)
 139:Core/Src/usart.c ****     {
 140:Core/Src/usart.c ****       Error_Handler();
 141:Core/Src/usart.c ****     }
 142:Core/Src/usart.c **** 
 143:Core/Src/usart.c ****     /* USART1 clock enable */
 144:Core/Src/usart.c ****     __HAL_RCC_USART1_CLK_ENABLE();
 145:Core/Src/usart.c **** 
 146:Core/Src/usart.c ****     __HAL_RCC_GPIOA_CLK_ENABLE();
ARM GAS  C:\Users\BIRDs\AppData\Local\Temp\ccJc2eCW.s 			page 9


 147:Core/Src/usart.c ****     /**USART1 GPIO Configuration
 148:Core/Src/usart.c ****     PA9     ------> USART1_TX
 149:Core/Src/usart.c ****     PA10     ------> USART1_RX
 150:Core/Src/usart.c ****     */
 151:Core/Src/usart.c ****     GPIO_InitStruct.Pin = GPIO_PIN_9|GPIO_PIN_10;
 152:Core/Src/usart.c ****     GPIO_InitStruct.Mode = GPIO_MODE_AF_PP;
 153:Core/Src/usart.c ****     GPIO_InitStruct.Pull = GPIO_PULLDOWN;
 154:Core/Src/usart.c ****     GPIO_InitStruct.Speed = GPIO_SPEED_FREQ_MEDIUM;
 155:Core/Src/usart.c ****     GPIO_InitStruct.Alternate = GPIO_AF7_USART1;
 156:Core/Src/usart.c ****     HAL_GPIO_Init(GPIOA, &GPIO_InitStruct);
 157:Core/Src/usart.c **** 
 158:Core/Src/usart.c ****     /* USART1 DMA Init */
 159:Core/Src/usart.c ****     /* USART1_TX Init */
 160:Core/Src/usart.c ****     hdma_usart1_tx.Instance = DMA1_Channel4;
 161:Core/Src/usart.c ****     hdma_usart1_tx.Init.Request = DMA_REQUEST_USART1_TX;
 162:Core/Src/usart.c ****     hdma_usart1_tx.Init.Direction = DMA_MEMORY_TO_PERIPH;
 163:Core/Src/usart.c ****     hdma_usart1_tx.Init.PeriphInc = DMA_PINC_DISABLE;
 164:Core/Src/usart.c ****     hdma_usart1_tx.Init.MemInc = DMA_MINC_ENABLE;
 165:Core/Src/usart.c ****     hdma_usart1_tx.Init.PeriphDataAlignment = DMA_PDATAALIGN_BYTE;
 166:Core/Src/usart.c ****     hdma_usart1_tx.Init.MemDataAlignment = DMA_MDATAALIGN_BYTE;
 167:Core/Src/usart.c ****     hdma_usart1_tx.Init.Mode = DMA_CIRCULAR;
 168:Core/Src/usart.c ****     hdma_usart1_tx.Init.Priority = DMA_PRIORITY_LOW;
 169:Core/Src/usart.c ****     if (HAL_DMA_Init(&hdma_usart1_tx) != HAL_OK)
 170:Core/Src/usart.c ****     {
 171:Core/Src/usart.c ****       Error_Handler();
 172:Core/Src/usart.c ****     }
 173:Core/Src/usart.c **** 
 174:Core/Src/usart.c ****     __HAL_LINKDMA(uartHandle,hdmatx,hdma_usart1_tx);
 175:Core/Src/usart.c **** 
 176:Core/Src/usart.c ****     /* USART1_RX Init */
 177:Core/Src/usart.c ****     hdma_usart1_rx.Instance = DMA1_Channel5;
 178:Core/Src/usart.c ****     hdma_usart1_rx.Init.Request = DMA_REQUEST_USART1_RX;
 179:Core/Src/usart.c ****     hdma_usart1_rx.Init.Direction = DMA_PERIPH_TO_MEMORY;
 180:Core/Src/usart.c ****     hdma_usart1_rx.Init.PeriphInc = DMA_PINC_DISABLE;
 181:Core/Src/usart.c ****     hdma_usart1_rx.Init.MemInc = DMA_MINC_ENABLE;
 182:Core/Src/usart.c ****     hdma_usart1_rx.Init.PeriphDataAlignment = DMA_PDATAALIGN_BYTE;
 183:Core/Src/usart.c ****     hdma_usart1_rx.Init.MemDataAlignment = DMA_MDATAALIGN_BYTE;
 184:Core/Src/usart.c ****     hdma_usart1_rx.Init.Mode = DMA_NORMAL;
 185:Core/Src/usart.c ****     hdma_usart1_rx.Init.Priority = DMA_PRIORITY_MEDIUM;
 186:Core/Src/usart.c ****     if (HAL_DMA_Init(&hdma_usart1_rx) != HAL_OK)
 187:Core/Src/usart.c ****     {
 188:Core/Src/usart.c ****       Error_Handler();
 189:Core/Src/usart.c ****     }
 190:Core/Src/usart.c **** 
 191:Core/Src/usart.c ****     __HAL_LINKDMA(uartHandle,hdmarx,hdma_usart1_rx);
 192:Core/Src/usart.c **** 
 193:Core/Src/usart.c ****   /* USER CODE BEGIN USART1_MspInit 1 */
 194:Core/Src/usart.c **** 
 195:Core/Src/usart.c ****   /* USER CODE END USART1_MspInit 1 */
 196:Core/Src/usart.c ****   }
 197:Core/Src/usart.c ****   else if(uartHandle->Instance==USART2)
 308              		.loc 1 197 8 is_stmt 1 view .LVU92
 309              		.loc 1 197 10 is_stmt 0 view .LVU93
 310 0022 664A     		ldr	r2, .L43+4
 311 0024 9342     		cmp	r3, r2
 312 0026 61D0     		beq	.L36
 313              	.L25:
ARM GAS  C:\Users\BIRDs\AppData\Local\Temp\ccJc2eCW.s 			page 10


 198:Core/Src/usart.c ****   {
 199:Core/Src/usart.c ****   /* USER CODE BEGIN USART2_MspInit 0 */
 200:Core/Src/usart.c **** 
 201:Core/Src/usart.c ****   /* USER CODE END USART2_MspInit 0 */
 202:Core/Src/usart.c **** 
 203:Core/Src/usart.c ****   /** Initializes the peripherals clocks
 204:Core/Src/usart.c ****   */
 205:Core/Src/usart.c ****     PeriphClkInit.PeriphClockSelection = RCC_PERIPHCLK_USART2;
 206:Core/Src/usart.c ****     PeriphClkInit.Usart2ClockSelection = RCC_USART2CLKSOURCE_PCLK1;
 207:Core/Src/usart.c ****     if (HAL_RCCEx_PeriphCLKConfig(&PeriphClkInit) != HAL_OK)
 208:Core/Src/usart.c ****     {
 209:Core/Src/usart.c ****       Error_Handler();
 210:Core/Src/usart.c ****     }
 211:Core/Src/usart.c **** 
 212:Core/Src/usart.c ****     /* USART2 clock enable */
 213:Core/Src/usart.c ****     __HAL_RCC_USART2_CLK_ENABLE();
 214:Core/Src/usart.c **** 
 215:Core/Src/usart.c ****     __HAL_RCC_GPIOA_CLK_ENABLE();
 216:Core/Src/usart.c ****     /**USART2 GPIO Configuration
 217:Core/Src/usart.c ****     PA2     ------> USART2_TX
 218:Core/Src/usart.c ****     PA3     ------> USART2_RX
 219:Core/Src/usart.c ****     */
 220:Core/Src/usart.c ****     GPIO_InitStruct.Pin = GPIO_PIN_2|GPIO_PIN_3;
 221:Core/Src/usart.c ****     GPIO_InitStruct.Mode = GPIO_MODE_AF_PP;
 222:Core/Src/usart.c ****     GPIO_InitStruct.Pull = GPIO_NOPULL;
 223:Core/Src/usart.c ****     GPIO_InitStruct.Speed = GPIO_SPEED_FREQ_LOW;
 224:Core/Src/usart.c ****     GPIO_InitStruct.Alternate = GPIO_AF7_USART2;
 225:Core/Src/usart.c ****     HAL_GPIO_Init(GPIOA, &GPIO_InitStruct);
 226:Core/Src/usart.c **** 
 227:Core/Src/usart.c ****     /* USART2 DMA Init */
 228:Core/Src/usart.c ****     /* USART2_RX Init */
 229:Core/Src/usart.c ****     hdma_usart2_rx.Instance = DMA1_Channel6;
 230:Core/Src/usart.c ****     hdma_usart2_rx.Init.Request = DMA_REQUEST_USART2_RX;
 231:Core/Src/usart.c ****     hdma_usart2_rx.Init.Direction = DMA_PERIPH_TO_MEMORY;
 232:Core/Src/usart.c ****     hdma_usart2_rx.Init.PeriphInc = DMA_PINC_DISABLE;
 233:Core/Src/usart.c ****     hdma_usart2_rx.Init.MemInc = DMA_MINC_ENABLE;
 234:Core/Src/usart.c ****     hdma_usart2_rx.Init.PeriphDataAlignment = DMA_PDATAALIGN_BYTE;
 235:Core/Src/usart.c ****     hdma_usart2_rx.Init.MemDataAlignment = DMA_MDATAALIGN_BYTE;
 236:Core/Src/usart.c ****     hdma_usart2_rx.Init.Mode = DMA_CIRCULAR;
 237:Core/Src/usart.c ****     hdma_usart2_rx.Init.Priority = DMA_PRIORITY_MEDIUM;
 238:Core/Src/usart.c ****     if (HAL_DMA_Init(&hdma_usart2_rx) != HAL_OK)
 239:Core/Src/usart.c ****     {
 240:Core/Src/usart.c ****       Error_Handler();
 241:Core/Src/usart.c ****     }
 242:Core/Src/usart.c **** 
 243:Core/Src/usart.c ****     __HAL_LINKDMA(uartHandle,hdmarx,hdma_usart2_rx);
 244:Core/Src/usart.c **** 
 245:Core/Src/usart.c ****     /* USART2_TX Init */
 246:Core/Src/usart.c ****     hdma_usart2_tx.Instance = DMA1_Channel2;
 247:Core/Src/usart.c ****     hdma_usart2_tx.Init.Request = DMA_REQUEST_USART2_TX;
 248:Core/Src/usart.c ****     hdma_usart2_tx.Init.Direction = DMA_MEMORY_TO_PERIPH;
 249:Core/Src/usart.c ****     hdma_usart2_tx.Init.PeriphInc = DMA_PINC_DISABLE;
 250:Core/Src/usart.c ****     hdma_usart2_tx.Init.MemInc = DMA_MINC_ENABLE;
 251:Core/Src/usart.c ****     hdma_usart2_tx.Init.PeriphDataAlignment = DMA_PDATAALIGN_BYTE;
 252:Core/Src/usart.c ****     hdma_usart2_tx.Init.MemDataAlignment = DMA_MDATAALIGN_BYTE;
 253:Core/Src/usart.c ****     hdma_usart2_tx.Init.Mode = DMA_NORMAL;
 254:Core/Src/usart.c ****     hdma_usart2_tx.Init.Priority = DMA_PRIORITY_LOW;
ARM GAS  C:\Users\BIRDs\AppData\Local\Temp\ccJc2eCW.s 			page 11


 255:Core/Src/usart.c ****     if (HAL_DMA_Init(&hdma_usart2_tx) != HAL_OK)
 256:Core/Src/usart.c ****     {
 257:Core/Src/usart.c ****       Error_Handler();
 258:Core/Src/usart.c ****     }
 259:Core/Src/usart.c **** 
 260:Core/Src/usart.c ****     __HAL_LINKDMA(uartHandle,hdmatx,hdma_usart2_tx);
 261:Core/Src/usart.c **** 
 262:Core/Src/usart.c ****     /* USART2 interrupt Init */
 263:Core/Src/usart.c ****     HAL_NVIC_SetPriority(USART2_IRQn, 5, 0);
 264:Core/Src/usart.c ****     HAL_NVIC_EnableIRQ(USART2_IRQn);
 265:Core/Src/usart.c ****   /* USER CODE BEGIN USART2_MspInit 1 */
 266:Core/Src/usart.c **** 
 267:Core/Src/usart.c ****   /* USER CODE END USART2_MspInit 1 */
 268:Core/Src/usart.c ****   }
 269:Core/Src/usart.c **** }
 314              		.loc 1 269 1 view .LVU94
 315 0028 1BB0     		add	sp, sp, #108
 316              	.LCFI4:
 317              		.cfi_remember_state
 318              		.cfi_def_cfa_offset 12
 319              		@ sp needed
 320 002a 30BD     		pop	{r4, r5, pc}
 321              	.LVL19:
 322              	.L35:
 323              	.LCFI5:
 324              		.cfi_restore_state
 136:Core/Src/usart.c ****     PeriphClkInit.Usart1ClockSelection = RCC_USART1CLKSOURCE_PCLK2;
 325              		.loc 1 136 5 is_stmt 1 view .LVU95
 136:Core/Src/usart.c ****     PeriphClkInit.Usart1ClockSelection = RCC_USART1CLKSOURCE_PCLK2;
 326              		.loc 1 136 40 is_stmt 0 view .LVU96
 327 002c 0123     		movs	r3, #1
 328 002e 0493     		str	r3, [sp, #16]
 137:Core/Src/usart.c ****     if (HAL_RCCEx_PeriphCLKConfig(&PeriphClkInit) != HAL_OK)
 329              		.loc 1 137 5 is_stmt 1 view .LVU97
 138:Core/Src/usart.c ****     {
 330              		.loc 1 138 5 view .LVU98
 138:Core/Src/usart.c ****     {
 331              		.loc 1 138 9 is_stmt 0 view .LVU99
 332 0030 04A8     		add	r0, sp, #16
 333 0032 FFF7FEFF 		bl	HAL_RCCEx_PeriphCLKConfig
 334              	.LVL20:
 138:Core/Src/usart.c ****     {
 335              		.loc 1 138 8 discriminator 1 view .LVU100
 336 0036 0028     		cmp	r0, #0
 337 0038 4FD1     		bne	.L37
 338              	.L27:
 144:Core/Src/usart.c **** 
 339              		.loc 1 144 5 is_stmt 1 view .LVU101
 340              	.LBB2:
 144:Core/Src/usart.c **** 
 341              		.loc 1 144 5 view .LVU102
 144:Core/Src/usart.c **** 
 342              		.loc 1 144 5 view .LVU103
 343 003a 614B     		ldr	r3, .L43+8
 344 003c 1A6E     		ldr	r2, [r3, #96]
 345 003e 42F48042 		orr	r2, r2, #16384
 346 0042 1A66     		str	r2, [r3, #96]
ARM GAS  C:\Users\BIRDs\AppData\Local\Temp\ccJc2eCW.s 			page 12


 144:Core/Src/usart.c **** 
 347              		.loc 1 144 5 view .LVU104
 348 0044 1A6E     		ldr	r2, [r3, #96]
 349 0046 02F48042 		and	r2, r2, #16384
 350 004a 0092     		str	r2, [sp]
 144:Core/Src/usart.c **** 
 351              		.loc 1 144 5 view .LVU105
 352 004c 009A     		ldr	r2, [sp]
 353              	.LBE2:
 144:Core/Src/usart.c **** 
 354              		.loc 1 144 5 view .LVU106
 146:Core/Src/usart.c ****     /**USART1 GPIO Configuration
 355              		.loc 1 146 5 view .LVU107
 356              	.LBB3:
 146:Core/Src/usart.c ****     /**USART1 GPIO Configuration
 357              		.loc 1 146 5 view .LVU108
 146:Core/Src/usart.c ****     /**USART1 GPIO Configuration
 358              		.loc 1 146 5 view .LVU109
 359 004e DA6C     		ldr	r2, [r3, #76]
 360 0050 42F00102 		orr	r2, r2, #1
 361 0054 DA64     		str	r2, [r3, #76]
 146:Core/Src/usart.c ****     /**USART1 GPIO Configuration
 362              		.loc 1 146 5 view .LVU110
 363 0056 DB6C     		ldr	r3, [r3, #76]
 364 0058 03F00103 		and	r3, r3, #1
 365 005c 0193     		str	r3, [sp, #4]
 146:Core/Src/usart.c ****     /**USART1 GPIO Configuration
 366              		.loc 1 146 5 view .LVU111
 367 005e 019B     		ldr	r3, [sp, #4]
 368              	.LBE3:
 146:Core/Src/usart.c ****     /**USART1 GPIO Configuration
 369              		.loc 1 146 5 view .LVU112
 151:Core/Src/usart.c ****     GPIO_InitStruct.Mode = GPIO_MODE_AF_PP;
 370              		.loc 1 151 5 view .LVU113
 151:Core/Src/usart.c ****     GPIO_InitStruct.Mode = GPIO_MODE_AF_PP;
 371              		.loc 1 151 25 is_stmt 0 view .LVU114
 372 0060 4FF4C063 		mov	r3, #1536
 373 0064 1593     		str	r3, [sp, #84]
 152:Core/Src/usart.c ****     GPIO_InitStruct.Pull = GPIO_PULLDOWN;
 374              		.loc 1 152 5 is_stmt 1 view .LVU115
 152:Core/Src/usart.c ****     GPIO_InitStruct.Pull = GPIO_PULLDOWN;
 375              		.loc 1 152 26 is_stmt 0 view .LVU116
 376 0066 0223     		movs	r3, #2
 377 0068 1693     		str	r3, [sp, #88]
 153:Core/Src/usart.c ****     GPIO_InitStruct.Speed = GPIO_SPEED_FREQ_MEDIUM;
 378              		.loc 1 153 5 is_stmt 1 view .LVU117
 153:Core/Src/usart.c ****     GPIO_InitStruct.Speed = GPIO_SPEED_FREQ_MEDIUM;
 379              		.loc 1 153 26 is_stmt 0 view .LVU118
 380 006a 1793     		str	r3, [sp, #92]
 154:Core/Src/usart.c ****     GPIO_InitStruct.Alternate = GPIO_AF7_USART1;
 381              		.loc 1 154 5 is_stmt 1 view .LVU119
 154:Core/Src/usart.c ****     GPIO_InitStruct.Alternate = GPIO_AF7_USART1;
 382              		.loc 1 154 27 is_stmt 0 view .LVU120
 383 006c 0123     		movs	r3, #1
 384 006e 1893     		str	r3, [sp, #96]
 155:Core/Src/usart.c ****     HAL_GPIO_Init(GPIOA, &GPIO_InitStruct);
 385              		.loc 1 155 5 is_stmt 1 view .LVU121
ARM GAS  C:\Users\BIRDs\AppData\Local\Temp\ccJc2eCW.s 			page 13


 155:Core/Src/usart.c ****     HAL_GPIO_Init(GPIOA, &GPIO_InitStruct);
 386              		.loc 1 155 31 is_stmt 0 view .LVU122
 387 0070 0723     		movs	r3, #7
 388 0072 1993     		str	r3, [sp, #100]
 156:Core/Src/usart.c **** 
 389              		.loc 1 156 5 is_stmt 1 view .LVU123
 390 0074 15A9     		add	r1, sp, #84
 391 0076 4FF09040 		mov	r0, #1207959552
 392 007a FFF7FEFF 		bl	HAL_GPIO_Init
 393              	.LVL21:
 160:Core/Src/usart.c ****     hdma_usart1_tx.Init.Request = DMA_REQUEST_USART1_TX;
 394              		.loc 1 160 5 view .LVU124
 160:Core/Src/usart.c ****     hdma_usart1_tx.Init.Request = DMA_REQUEST_USART1_TX;
 395              		.loc 1 160 29 is_stmt 0 view .LVU125
 396 007e 5148     		ldr	r0, .L43+12
 397 0080 514B     		ldr	r3, .L43+16
 398 0082 0360     		str	r3, [r0]
 161:Core/Src/usart.c ****     hdma_usart1_tx.Init.Direction = DMA_MEMORY_TO_PERIPH;
 399              		.loc 1 161 5 is_stmt 1 view .LVU126
 161:Core/Src/usart.c ****     hdma_usart1_tx.Init.Direction = DMA_MEMORY_TO_PERIPH;
 400              		.loc 1 161 33 is_stmt 0 view .LVU127
 401 0084 1923     		movs	r3, #25
 402 0086 4360     		str	r3, [r0, #4]
 162:Core/Src/usart.c ****     hdma_usart1_tx.Init.PeriphInc = DMA_PINC_DISABLE;
 403              		.loc 1 162 5 is_stmt 1 view .LVU128
 162:Core/Src/usart.c ****     hdma_usart1_tx.Init.PeriphInc = DMA_PINC_DISABLE;
 404              		.loc 1 162 35 is_stmt 0 view .LVU129
 405 0088 1023     		movs	r3, #16
 406 008a 8360     		str	r3, [r0, #8]
 163:Core/Src/usart.c ****     hdma_usart1_tx.Init.MemInc = DMA_MINC_ENABLE;
 407              		.loc 1 163 5 is_stmt 1 view .LVU130
 163:Core/Src/usart.c ****     hdma_usart1_tx.Init.MemInc = DMA_MINC_ENABLE;
 408              		.loc 1 163 35 is_stmt 0 view .LVU131
 409 008c 0023     		movs	r3, #0
 410 008e C360     		str	r3, [r0, #12]
 164:Core/Src/usart.c ****     hdma_usart1_tx.Init.PeriphDataAlignment = DMA_PDATAALIGN_BYTE;
 411              		.loc 1 164 5 is_stmt 1 view .LVU132
 164:Core/Src/usart.c ****     hdma_usart1_tx.Init.PeriphDataAlignment = DMA_PDATAALIGN_BYTE;
 412              		.loc 1 164 32 is_stmt 0 view .LVU133
 413 0090 8022     		movs	r2, #128
 414 0092 0261     		str	r2, [r0, #16]
 165:Core/Src/usart.c ****     hdma_usart1_tx.Init.MemDataAlignment = DMA_MDATAALIGN_BYTE;
 415              		.loc 1 165 5 is_stmt 1 view .LVU134
 165:Core/Src/usart.c ****     hdma_usart1_tx.Init.MemDataAlignment = DMA_MDATAALIGN_BYTE;
 416              		.loc 1 165 45 is_stmt 0 view .LVU135
 417 0094 4361     		str	r3, [r0, #20]
 166:Core/Src/usart.c ****     hdma_usart1_tx.Init.Mode = DMA_CIRCULAR;
 418              		.loc 1 166 5 is_stmt 1 view .LVU136
 166:Core/Src/usart.c ****     hdma_usart1_tx.Init.Mode = DMA_CIRCULAR;
 419              		.loc 1 166 42 is_stmt 0 view .LVU137
 420 0096 8361     		str	r3, [r0, #24]
 167:Core/Src/usart.c ****     hdma_usart1_tx.Init.Priority = DMA_PRIORITY_LOW;
 421              		.loc 1 167 5 is_stmt 1 view .LVU138
 167:Core/Src/usart.c ****     hdma_usart1_tx.Init.Priority = DMA_PRIORITY_LOW;
 422              		.loc 1 167 30 is_stmt 0 view .LVU139
 423 0098 2022     		movs	r2, #32
 424 009a C261     		str	r2, [r0, #28]
ARM GAS  C:\Users\BIRDs\AppData\Local\Temp\ccJc2eCW.s 			page 14


 168:Core/Src/usart.c ****     if (HAL_DMA_Init(&hdma_usart1_tx) != HAL_OK)
 425              		.loc 1 168 5 is_stmt 1 view .LVU140
 168:Core/Src/usart.c ****     if (HAL_DMA_Init(&hdma_usart1_tx) != HAL_OK)
 426              		.loc 1 168 34 is_stmt 0 view .LVU141
 427 009c 0362     		str	r3, [r0, #32]
 169:Core/Src/usart.c ****     {
 428              		.loc 1 169 5 is_stmt 1 view .LVU142
 169:Core/Src/usart.c ****     {
 429              		.loc 1 169 9 is_stmt 0 view .LVU143
 430 009e FFF7FEFF 		bl	HAL_DMA_Init
 431              	.LVL22:
 169:Core/Src/usart.c ****     {
 432              		.loc 1 169 8 discriminator 1 view .LVU144
 433 00a2 E8B9     		cbnz	r0, .L38
 434              	.L28:
 174:Core/Src/usart.c **** 
 435              		.loc 1 174 5 is_stmt 1 view .LVU145
 174:Core/Src/usart.c **** 
 436              		.loc 1 174 5 view .LVU146
 437 00a4 474B     		ldr	r3, .L43+12
 438 00a6 E367     		str	r3, [r4, #124]
 174:Core/Src/usart.c **** 
 439              		.loc 1 174 5 view .LVU147
 440 00a8 9C62     		str	r4, [r3, #40]
 174:Core/Src/usart.c **** 
 441              		.loc 1 174 5 view .LVU148
 177:Core/Src/usart.c ****     hdma_usart1_rx.Init.Request = DMA_REQUEST_USART1_RX;
 442              		.loc 1 177 5 view .LVU149
 177:Core/Src/usart.c ****     hdma_usart1_rx.Init.Request = DMA_REQUEST_USART1_RX;
 443              		.loc 1 177 29 is_stmt 0 view .LVU150
 444 00aa 4848     		ldr	r0, .L43+20
 445 00ac 484B     		ldr	r3, .L43+24
 446 00ae 0360     		str	r3, [r0]
 178:Core/Src/usart.c ****     hdma_usart1_rx.Init.Direction = DMA_PERIPH_TO_MEMORY;
 447              		.loc 1 178 5 is_stmt 1 view .LVU151
 178:Core/Src/usart.c ****     hdma_usart1_rx.Init.Direction = DMA_PERIPH_TO_MEMORY;
 448              		.loc 1 178 33 is_stmt 0 view .LVU152
 449 00b0 1823     		movs	r3, #24
 450 00b2 4360     		str	r3, [r0, #4]
 179:Core/Src/usart.c ****     hdma_usart1_rx.Init.PeriphInc = DMA_PINC_DISABLE;
 451              		.loc 1 179 5 is_stmt 1 view .LVU153
 179:Core/Src/usart.c ****     hdma_usart1_rx.Init.PeriphInc = DMA_PINC_DISABLE;
 452              		.loc 1 179 35 is_stmt 0 view .LVU154
 453 00b4 0023     		movs	r3, #0
 454 00b6 8360     		str	r3, [r0, #8]
 180:Core/Src/usart.c ****     hdma_usart1_rx.Init.MemInc = DMA_MINC_ENABLE;
 455              		.loc 1 180 5 is_stmt 1 view .LVU155
 180:Core/Src/usart.c ****     hdma_usart1_rx.Init.MemInc = DMA_MINC_ENABLE;
 456              		.loc 1 180 35 is_stmt 0 view .LVU156
 457 00b8 C360     		str	r3, [r0, #12]
 181:Core/Src/usart.c ****     hdma_usart1_rx.Init.PeriphDataAlignment = DMA_PDATAALIGN_BYTE;
 458              		.loc 1 181 5 is_stmt 1 view .LVU157
 181:Core/Src/usart.c ****     hdma_usart1_rx.Init.PeriphDataAlignment = DMA_PDATAALIGN_BYTE;
 459              		.loc 1 181 32 is_stmt 0 view .LVU158
 460 00ba 8022     		movs	r2, #128
 461 00bc 0261     		str	r2, [r0, #16]
 182:Core/Src/usart.c ****     hdma_usart1_rx.Init.MemDataAlignment = DMA_MDATAALIGN_BYTE;
ARM GAS  C:\Users\BIRDs\AppData\Local\Temp\ccJc2eCW.s 			page 15


 462              		.loc 1 182 5 is_stmt 1 view .LVU159
 182:Core/Src/usart.c ****     hdma_usart1_rx.Init.MemDataAlignment = DMA_MDATAALIGN_BYTE;
 463              		.loc 1 182 45 is_stmt 0 view .LVU160
 464 00be 4361     		str	r3, [r0, #20]
 183:Core/Src/usart.c ****     hdma_usart1_rx.Init.Mode = DMA_NORMAL;
 465              		.loc 1 183 5 is_stmt 1 view .LVU161
 183:Core/Src/usart.c ****     hdma_usart1_rx.Init.Mode = DMA_NORMAL;
 466              		.loc 1 183 42 is_stmt 0 view .LVU162
 467 00c0 8361     		str	r3, [r0, #24]
 184:Core/Src/usart.c ****     hdma_usart1_rx.Init.Priority = DMA_PRIORITY_MEDIUM;
 468              		.loc 1 184 5 is_stmt 1 view .LVU163
 184:Core/Src/usart.c ****     hdma_usart1_rx.Init.Priority = DMA_PRIORITY_MEDIUM;
 469              		.loc 1 184 30 is_stmt 0 view .LVU164
 470 00c2 C361     		str	r3, [r0, #28]
 185:Core/Src/usart.c ****     if (HAL_DMA_Init(&hdma_usart1_rx) != HAL_OK)
 471              		.loc 1 185 5 is_stmt 1 view .LVU165
 185:Core/Src/usart.c ****     if (HAL_DMA_Init(&hdma_usart1_rx) != HAL_OK)
 472              		.loc 1 185 34 is_stmt 0 view .LVU166
 473 00c4 4FF48053 		mov	r3, #4096
 474 00c8 0362     		str	r3, [r0, #32]
 186:Core/Src/usart.c ****     {
 475              		.loc 1 186 5 is_stmt 1 view .LVU167
 186:Core/Src/usart.c ****     {
 476              		.loc 1 186 9 is_stmt 0 view .LVU168
 477 00ca FFF7FEFF 		bl	HAL_DMA_Init
 478              	.LVL23:
 186:Core/Src/usart.c ****     {
 479              		.loc 1 186 8 discriminator 1 view .LVU169
 480 00ce 50B9     		cbnz	r0, .L39
 481              	.L29:
 191:Core/Src/usart.c **** 
 482              		.loc 1 191 5 is_stmt 1 view .LVU170
 191:Core/Src/usart.c **** 
 483              		.loc 1 191 5 view .LVU171
 484 00d0 3E4B     		ldr	r3, .L43+20
 485 00d2 C4F88030 		str	r3, [r4, #128]
 191:Core/Src/usart.c **** 
 486              		.loc 1 191 5 view .LVU172
 487 00d6 9C62     		str	r4, [r3, #40]
 191:Core/Src/usart.c **** 
 488              		.loc 1 191 5 view .LVU173
 489 00d8 A6E7     		b	.L25
 490              	.L37:
 140:Core/Src/usart.c ****     }
 491              		.loc 1 140 7 view .LVU174
 492 00da FFF7FEFF 		bl	Error_Handler
 493              	.LVL24:
 494 00de ACE7     		b	.L27
 495              	.L38:
 171:Core/Src/usart.c ****     }
 496              		.loc 1 171 7 view .LVU175
 497 00e0 FFF7FEFF 		bl	Error_Handler
 498              	.LVL25:
 499 00e4 DEE7     		b	.L28
 500              	.L39:
 188:Core/Src/usart.c ****     }
 501              		.loc 1 188 7 view .LVU176
ARM GAS  C:\Users\BIRDs\AppData\Local\Temp\ccJc2eCW.s 			page 16


 502 00e6 FFF7FEFF 		bl	Error_Handler
 503              	.LVL26:
 504 00ea F1E7     		b	.L29
 505              	.L36:
 205:Core/Src/usart.c ****     PeriphClkInit.Usart2ClockSelection = RCC_USART2CLKSOURCE_PCLK1;
 506              		.loc 1 205 5 view .LVU177
 205:Core/Src/usart.c ****     PeriphClkInit.Usart2ClockSelection = RCC_USART2CLKSOURCE_PCLK1;
 507              		.loc 1 205 40 is_stmt 0 view .LVU178
 508 00ec 0223     		movs	r3, #2
 509 00ee 0493     		str	r3, [sp, #16]
 206:Core/Src/usart.c ****     if (HAL_RCCEx_PeriphCLKConfig(&PeriphClkInit) != HAL_OK)
 510              		.loc 1 206 5 is_stmt 1 view .LVU179
 207:Core/Src/usart.c ****     {
 511              		.loc 1 207 5 view .LVU180
 207:Core/Src/usart.c ****     {
 512              		.loc 1 207 9 is_stmt 0 view .LVU181
 513 00f0 04A8     		add	r0, sp, #16
 514 00f2 FFF7FEFF 		bl	HAL_RCCEx_PeriphCLKConfig
 515              	.LVL27:
 207:Core/Src/usart.c ****     {
 516              		.loc 1 207 8 discriminator 1 view .LVU182
 517 00f6 0028     		cmp	r0, #0
 518 00f8 55D1     		bne	.L40
 519              	.L31:
 213:Core/Src/usart.c **** 
 520              		.loc 1 213 5 is_stmt 1 view .LVU183
 521              	.LBB4:
 213:Core/Src/usart.c **** 
 522              		.loc 1 213 5 view .LVU184
 213:Core/Src/usart.c **** 
 523              		.loc 1 213 5 view .LVU185
 524 00fa 314B     		ldr	r3, .L43+8
 525 00fc 9A6D     		ldr	r2, [r3, #88]
 526 00fe 42F40032 		orr	r2, r2, #131072
 527 0102 9A65     		str	r2, [r3, #88]
 213:Core/Src/usart.c **** 
 528              		.loc 1 213 5 view .LVU186
 529 0104 9A6D     		ldr	r2, [r3, #88]
 530 0106 02F40032 		and	r2, r2, #131072
 531 010a 0292     		str	r2, [sp, #8]
 213:Core/Src/usart.c **** 
 532              		.loc 1 213 5 view .LVU187
 533 010c 029A     		ldr	r2, [sp, #8]
 534              	.LBE4:
 213:Core/Src/usart.c **** 
 535              		.loc 1 213 5 view .LVU188
 215:Core/Src/usart.c ****     /**USART2 GPIO Configuration
 536              		.loc 1 215 5 view .LVU189
 537              	.LBB5:
 215:Core/Src/usart.c ****     /**USART2 GPIO Configuration
 538              		.loc 1 215 5 view .LVU190
 215:Core/Src/usart.c ****     /**USART2 GPIO Configuration
 539              		.loc 1 215 5 view .LVU191
 540 010e DA6C     		ldr	r2, [r3, #76]
 541 0110 42F00102 		orr	r2, r2, #1
 542 0114 DA64     		str	r2, [r3, #76]
 215:Core/Src/usart.c ****     /**USART2 GPIO Configuration
ARM GAS  C:\Users\BIRDs\AppData\Local\Temp\ccJc2eCW.s 			page 17


 543              		.loc 1 215 5 view .LVU192
 544 0116 DB6C     		ldr	r3, [r3, #76]
 545 0118 03F00103 		and	r3, r3, #1
 546 011c 0393     		str	r3, [sp, #12]
 215:Core/Src/usart.c ****     /**USART2 GPIO Configuration
 547              		.loc 1 215 5 view .LVU193
 548 011e 039B     		ldr	r3, [sp, #12]
 549              	.LBE5:
 215:Core/Src/usart.c ****     /**USART2 GPIO Configuration
 550              		.loc 1 215 5 view .LVU194
 220:Core/Src/usart.c ****     GPIO_InitStruct.Mode = GPIO_MODE_AF_PP;
 551              		.loc 1 220 5 view .LVU195
 220:Core/Src/usart.c ****     GPIO_InitStruct.Mode = GPIO_MODE_AF_PP;
 552              		.loc 1 220 25 is_stmt 0 view .LVU196
 553 0120 0C23     		movs	r3, #12
 554 0122 1593     		str	r3, [sp, #84]
 221:Core/Src/usart.c ****     GPIO_InitStruct.Pull = GPIO_NOPULL;
 555              		.loc 1 221 5 is_stmt 1 view .LVU197
 221:Core/Src/usart.c ****     GPIO_InitStruct.Pull = GPIO_NOPULL;
 556              		.loc 1 221 26 is_stmt 0 view .LVU198
 557 0124 0223     		movs	r3, #2
 558 0126 1693     		str	r3, [sp, #88]
 222:Core/Src/usart.c ****     GPIO_InitStruct.Speed = GPIO_SPEED_FREQ_LOW;
 559              		.loc 1 222 5 is_stmt 1 view .LVU199
 222:Core/Src/usart.c ****     GPIO_InitStruct.Speed = GPIO_SPEED_FREQ_LOW;
 560              		.loc 1 222 26 is_stmt 0 view .LVU200
 561 0128 0025     		movs	r5, #0
 562 012a 1795     		str	r5, [sp, #92]
 223:Core/Src/usart.c ****     GPIO_InitStruct.Alternate = GPIO_AF7_USART2;
 563              		.loc 1 223 5 is_stmt 1 view .LVU201
 223:Core/Src/usart.c ****     GPIO_InitStruct.Alternate = GPIO_AF7_USART2;
 564              		.loc 1 223 27 is_stmt 0 view .LVU202
 565 012c 1895     		str	r5, [sp, #96]
 224:Core/Src/usart.c ****     HAL_GPIO_Init(GPIOA, &GPIO_InitStruct);
 566              		.loc 1 224 5 is_stmt 1 view .LVU203
 224:Core/Src/usart.c ****     HAL_GPIO_Init(GPIOA, &GPIO_InitStruct);
 567              		.loc 1 224 31 is_stmt 0 view .LVU204
 568 012e 0723     		movs	r3, #7
 569 0130 1993     		str	r3, [sp, #100]
 225:Core/Src/usart.c **** 
 570              		.loc 1 225 5 is_stmt 1 view .LVU205
 571 0132 15A9     		add	r1, sp, #84
 572 0134 4FF09040 		mov	r0, #1207959552
 573 0138 FFF7FEFF 		bl	HAL_GPIO_Init
 574              	.LVL28:
 229:Core/Src/usart.c ****     hdma_usart2_rx.Init.Request = DMA_REQUEST_USART2_RX;
 575              		.loc 1 229 5 view .LVU206
 229:Core/Src/usart.c ****     hdma_usart2_rx.Init.Request = DMA_REQUEST_USART2_RX;
 576              		.loc 1 229 29 is_stmt 0 view .LVU207
 577 013c 2548     		ldr	r0, .L43+28
 578 013e 264B     		ldr	r3, .L43+32
 579 0140 0360     		str	r3, [r0]
 230:Core/Src/usart.c ****     hdma_usart2_rx.Init.Direction = DMA_PERIPH_TO_MEMORY;
 580              		.loc 1 230 5 is_stmt 1 view .LVU208
 230:Core/Src/usart.c ****     hdma_usart2_rx.Init.Direction = DMA_PERIPH_TO_MEMORY;
 581              		.loc 1 230 33 is_stmt 0 view .LVU209
 582 0142 1A23     		movs	r3, #26
ARM GAS  C:\Users\BIRDs\AppData\Local\Temp\ccJc2eCW.s 			page 18


 583 0144 4360     		str	r3, [r0, #4]
 231:Core/Src/usart.c ****     hdma_usart2_rx.Init.PeriphInc = DMA_PINC_DISABLE;
 584              		.loc 1 231 5 is_stmt 1 view .LVU210
 231:Core/Src/usart.c ****     hdma_usart2_rx.Init.PeriphInc = DMA_PINC_DISABLE;
 585              		.loc 1 231 35 is_stmt 0 view .LVU211
 586 0146 8560     		str	r5, [r0, #8]
 232:Core/Src/usart.c ****     hdma_usart2_rx.Init.MemInc = DMA_MINC_ENABLE;
 587              		.loc 1 232 5 is_stmt 1 view .LVU212
 232:Core/Src/usart.c ****     hdma_usart2_rx.Init.MemInc = DMA_MINC_ENABLE;
 588              		.loc 1 232 35 is_stmt 0 view .LVU213
 589 0148 C560     		str	r5, [r0, #12]
 233:Core/Src/usart.c ****     hdma_usart2_rx.Init.PeriphDataAlignment = DMA_PDATAALIGN_BYTE;
 590              		.loc 1 233 5 is_stmt 1 view .LVU214
 233:Core/Src/usart.c ****     hdma_usart2_rx.Init.PeriphDataAlignment = DMA_PDATAALIGN_BYTE;
 591              		.loc 1 233 32 is_stmt 0 view .LVU215
 592 014a 8023     		movs	r3, #128
 593 014c 0361     		str	r3, [r0, #16]
 234:Core/Src/usart.c ****     hdma_usart2_rx.Init.MemDataAlignment = DMA_MDATAALIGN_BYTE;
 594              		.loc 1 234 5 is_stmt 1 view .LVU216
 234:Core/Src/usart.c ****     hdma_usart2_rx.Init.MemDataAlignment = DMA_MDATAALIGN_BYTE;
 595              		.loc 1 234 45 is_stmt 0 view .LVU217
 596 014e 4561     		str	r5, [r0, #20]
 235:Core/Src/usart.c ****     hdma_usart2_rx.Init.Mode = DMA_CIRCULAR;
 597              		.loc 1 235 5 is_stmt 1 view .LVU218
 235:Core/Src/usart.c ****     hdma_usart2_rx.Init.Mode = DMA_CIRCULAR;
 598              		.loc 1 235 42 is_stmt 0 view .LVU219
 599 0150 8561     		str	r5, [r0, #24]
 236:Core/Src/usart.c ****     hdma_usart2_rx.Init.Priority = DMA_PRIORITY_MEDIUM;
 600              		.loc 1 236 5 is_stmt 1 view .LVU220
 236:Core/Src/usart.c ****     hdma_usart2_rx.Init.Priority = DMA_PRIORITY_MEDIUM;
 601              		.loc 1 236 30 is_stmt 0 view .LVU221
 602 0152 2023     		movs	r3, #32
 603 0154 C361     		str	r3, [r0, #28]
 237:Core/Src/usart.c ****     if (HAL_DMA_Init(&hdma_usart2_rx) != HAL_OK)
 604              		.loc 1 237 5 is_stmt 1 view .LVU222
 237:Core/Src/usart.c ****     if (HAL_DMA_Init(&hdma_usart2_rx) != HAL_OK)
 605              		.loc 1 237 34 is_stmt 0 view .LVU223
 606 0156 4FF48053 		mov	r3, #4096
 607 015a 0362     		str	r3, [r0, #32]
 238:Core/Src/usart.c ****     {
 608              		.loc 1 238 5 is_stmt 1 view .LVU224
 238:Core/Src/usart.c ****     {
 609              		.loc 1 238 9 is_stmt 0 view .LVU225
 610 015c FFF7FEFF 		bl	HAL_DMA_Init
 611              	.LVL29:
 238:Core/Src/usart.c ****     {
 612              		.loc 1 238 8 discriminator 1 view .LVU226
 613 0160 20BB     		cbnz	r0, .L41
 614              	.L32:
 243:Core/Src/usart.c **** 
 615              		.loc 1 243 5 is_stmt 1 view .LVU227
 243:Core/Src/usart.c **** 
 616              		.loc 1 243 5 view .LVU228
 617 0162 1C4B     		ldr	r3, .L43+28
 618 0164 C4F88030 		str	r3, [r4, #128]
 243:Core/Src/usart.c **** 
 619              		.loc 1 243 5 view .LVU229
ARM GAS  C:\Users\BIRDs\AppData\Local\Temp\ccJc2eCW.s 			page 19


 620 0168 9C62     		str	r4, [r3, #40]
 243:Core/Src/usart.c **** 
 621              		.loc 1 243 5 view .LVU230
 246:Core/Src/usart.c ****     hdma_usart2_tx.Init.Request = DMA_REQUEST_USART2_TX;
 622              		.loc 1 246 5 view .LVU231
 246:Core/Src/usart.c ****     hdma_usart2_tx.Init.Request = DMA_REQUEST_USART2_TX;
 623              		.loc 1 246 29 is_stmt 0 view .LVU232
 624 016a 1C48     		ldr	r0, .L43+36
 625 016c 1C4B     		ldr	r3, .L43+40
 626 016e 0360     		str	r3, [r0]
 247:Core/Src/usart.c ****     hdma_usart2_tx.Init.Direction = DMA_MEMORY_TO_PERIPH;
 627              		.loc 1 247 5 is_stmt 1 view .LVU233
 247:Core/Src/usart.c ****     hdma_usart2_tx.Init.Direction = DMA_MEMORY_TO_PERIPH;
 628              		.loc 1 247 33 is_stmt 0 view .LVU234
 629 0170 1B23     		movs	r3, #27
 630 0172 4360     		str	r3, [r0, #4]
 248:Core/Src/usart.c ****     hdma_usart2_tx.Init.PeriphInc = DMA_PINC_DISABLE;
 631              		.loc 1 248 5 is_stmt 1 view .LVU235
 248:Core/Src/usart.c ****     hdma_usart2_tx.Init.PeriphInc = DMA_PINC_DISABLE;
 632              		.loc 1 248 35 is_stmt 0 view .LVU236
 633 0174 1023     		movs	r3, #16
 634 0176 8360     		str	r3, [r0, #8]
 249:Core/Src/usart.c ****     hdma_usart2_tx.Init.MemInc = DMA_MINC_ENABLE;
 635              		.loc 1 249 5 is_stmt 1 view .LVU237
 249:Core/Src/usart.c ****     hdma_usart2_tx.Init.MemInc = DMA_MINC_ENABLE;
 636              		.loc 1 249 35 is_stmt 0 view .LVU238
 637 0178 0023     		movs	r3, #0
 638 017a C360     		str	r3, [r0, #12]
 250:Core/Src/usart.c ****     hdma_usart2_tx.Init.PeriphDataAlignment = DMA_PDATAALIGN_BYTE;
 639              		.loc 1 250 5 is_stmt 1 view .LVU239
 250:Core/Src/usart.c ****     hdma_usart2_tx.Init.PeriphDataAlignment = DMA_PDATAALIGN_BYTE;
 640              		.loc 1 250 32 is_stmt 0 view .LVU240
 641 017c 8022     		movs	r2, #128
 642 017e 0261     		str	r2, [r0, #16]
 251:Core/Src/usart.c ****     hdma_usart2_tx.Init.MemDataAlignment = DMA_MDATAALIGN_BYTE;
 643              		.loc 1 251 5 is_stmt 1 view .LVU241
 251:Core/Src/usart.c ****     hdma_usart2_tx.Init.MemDataAlignment = DMA_MDATAALIGN_BYTE;
 644              		.loc 1 251 45 is_stmt 0 view .LVU242
 645 0180 4361     		str	r3, [r0, #20]
 252:Core/Src/usart.c ****     hdma_usart2_tx.Init.Mode = DMA_NORMAL;
 646              		.loc 1 252 5 is_stmt 1 view .LVU243
 252:Core/Src/usart.c ****     hdma_usart2_tx.Init.Mode = DMA_NORMAL;
 647              		.loc 1 252 42 is_stmt 0 view .LVU244
 648 0182 8361     		str	r3, [r0, #24]
 253:Core/Src/usart.c ****     hdma_usart2_tx.Init.Priority = DMA_PRIORITY_LOW;
 649              		.loc 1 253 5 is_stmt 1 view .LVU245
 253:Core/Src/usart.c ****     hdma_usart2_tx.Init.Priority = DMA_PRIORITY_LOW;
 650              		.loc 1 253 30 is_stmt 0 view .LVU246
 651 0184 C361     		str	r3, [r0, #28]
 254:Core/Src/usart.c ****     if (HAL_DMA_Init(&hdma_usart2_tx) != HAL_OK)
 652              		.loc 1 254 5 is_stmt 1 view .LVU247
 254:Core/Src/usart.c ****     if (HAL_DMA_Init(&hdma_usart2_tx) != HAL_OK)
 653              		.loc 1 254 34 is_stmt 0 view .LVU248
 654 0186 0362     		str	r3, [r0, #32]
 255:Core/Src/usart.c ****     {
 655              		.loc 1 255 5 is_stmt 1 view .LVU249
 255:Core/Src/usart.c ****     {
ARM GAS  C:\Users\BIRDs\AppData\Local\Temp\ccJc2eCW.s 			page 20


 656              		.loc 1 255 9 is_stmt 0 view .LVU250
 657 0188 FFF7FEFF 		bl	HAL_DMA_Init
 658              	.LVL30:
 255:Core/Src/usart.c ****     {
 659              		.loc 1 255 8 discriminator 1 view .LVU251
 660 018c 88B9     		cbnz	r0, .L42
 661              	.L33:
 260:Core/Src/usart.c **** 
 662              		.loc 1 260 5 is_stmt 1 view .LVU252
 260:Core/Src/usart.c **** 
 663              		.loc 1 260 5 view .LVU253
 664 018e 134B     		ldr	r3, .L43+36
 665 0190 E367     		str	r3, [r4, #124]
 260:Core/Src/usart.c **** 
 666              		.loc 1 260 5 view .LVU254
 667 0192 9C62     		str	r4, [r3, #40]
 260:Core/Src/usart.c **** 
 668              		.loc 1 260 5 view .LVU255
 263:Core/Src/usart.c ****     HAL_NVIC_EnableIRQ(USART2_IRQn);
 669              		.loc 1 263 5 view .LVU256
 670 0194 0022     		movs	r2, #0
 671 0196 0521     		movs	r1, #5
 672 0198 2620     		movs	r0, #38
 673 019a FFF7FEFF 		bl	HAL_NVIC_SetPriority
 674              	.LVL31:
 264:Core/Src/usart.c ****   /* USER CODE BEGIN USART2_MspInit 1 */
 675              		.loc 1 264 5 view .LVU257
 676 019e 2620     		movs	r0, #38
 677 01a0 FFF7FEFF 		bl	HAL_NVIC_EnableIRQ
 678              	.LVL32:
 679              		.loc 1 269 1 is_stmt 0 view .LVU258
 680 01a4 40E7     		b	.L25
 681              	.L40:
 209:Core/Src/usart.c ****     }
 682              		.loc 1 209 7 is_stmt 1 view .LVU259
 683 01a6 FFF7FEFF 		bl	Error_Handler
 684              	.LVL33:
 685 01aa A6E7     		b	.L31
 686              	.L41:
 240:Core/Src/usart.c ****     }
 687              		.loc 1 240 7 view .LVU260
 688 01ac FFF7FEFF 		bl	Error_Handler
 689              	.LVL34:
 690 01b0 D7E7     		b	.L32
 691              	.L42:
 257:Core/Src/usart.c ****     }
 692              		.loc 1 257 7 view .LVU261
 693 01b2 FFF7FEFF 		bl	Error_Handler
 694              	.LVL35:
 695 01b6 EAE7     		b	.L33
 696              	.L44:
 697              		.align	2
 698              	.L43:
 699 01b8 00380140 		.word	1073821696
 700 01bc 00440040 		.word	1073759232
 701 01c0 00100240 		.word	1073876992
 702 01c4 00000000 		.word	hdma_usart1_tx
ARM GAS  C:\Users\BIRDs\AppData\Local\Temp\ccJc2eCW.s 			page 21


 703 01c8 44000240 		.word	1073872964
 704 01cc 00000000 		.word	hdma_usart1_rx
 705 01d0 58000240 		.word	1073872984
 706 01d4 00000000 		.word	hdma_usart2_rx
 707 01d8 6C000240 		.word	1073873004
 708 01dc 00000000 		.word	hdma_usart2_tx
 709 01e0 1C000240 		.word	1073872924
 710              		.cfi_endproc
 711              	.LFE331:
 713              		.section	.text.HAL_UART_MspDeInit,"ax",%progbits
 714              		.align	1
 715              		.global	HAL_UART_MspDeInit
 716              		.syntax unified
 717              		.thumb
 718              		.thumb_func
 720              	HAL_UART_MspDeInit:
 721              	.LVL36:
 722              	.LFB332:
 270:Core/Src/usart.c **** 
 271:Core/Src/usart.c **** void HAL_UART_MspDeInit(UART_HandleTypeDef* uartHandle)
 272:Core/Src/usart.c **** {
 723              		.loc 1 272 1 view -0
 724              		.cfi_startproc
 725              		@ args = 0, pretend = 0, frame = 0
 726              		@ frame_needed = 0, uses_anonymous_args = 0
 727              		.loc 1 272 1 is_stmt 0 view .LVU263
 728 0000 10B5     		push	{r4, lr}
 729              	.LCFI6:
 730              		.cfi_def_cfa_offset 8
 731              		.cfi_offset 4, -8
 732              		.cfi_offset 14, -4
 733 0002 0446     		mov	r4, r0
 273:Core/Src/usart.c **** 
 274:Core/Src/usart.c ****   if(uartHandle->Instance==USART1)
 734              		.loc 1 274 3 is_stmt 1 view .LVU264
 735              		.loc 1 274 16 is_stmt 0 view .LVU265
 736 0004 0368     		ldr	r3, [r0]
 737              		.loc 1 274 5 view .LVU266
 738 0006 184A     		ldr	r2, .L51
 739 0008 9342     		cmp	r3, r2
 740 000a 03D0     		beq	.L49
 275:Core/Src/usart.c ****   {
 276:Core/Src/usart.c ****   /* USER CODE BEGIN USART1_MspDeInit 0 */
 277:Core/Src/usart.c **** 
 278:Core/Src/usart.c ****   /* USER CODE END USART1_MspDeInit 0 */
 279:Core/Src/usart.c ****     /* Peripheral clock disable */
 280:Core/Src/usart.c ****     __HAL_RCC_USART1_CLK_DISABLE();
 281:Core/Src/usart.c **** 
 282:Core/Src/usart.c ****     /**USART1 GPIO Configuration
 283:Core/Src/usart.c ****     PA9     ------> USART1_TX
 284:Core/Src/usart.c ****     PA10     ------> USART1_RX
 285:Core/Src/usart.c ****     */
 286:Core/Src/usart.c ****     HAL_GPIO_DeInit(GPIOA, GPIO_PIN_9|GPIO_PIN_10);
 287:Core/Src/usart.c **** 
 288:Core/Src/usart.c ****     /* USART1 DMA DeInit */
 289:Core/Src/usart.c ****     HAL_DMA_DeInit(uartHandle->hdmatx);
 290:Core/Src/usart.c ****     HAL_DMA_DeInit(uartHandle->hdmarx);
ARM GAS  C:\Users\BIRDs\AppData\Local\Temp\ccJc2eCW.s 			page 22


 291:Core/Src/usart.c ****   /* USER CODE BEGIN USART1_MspDeInit 1 */
 292:Core/Src/usart.c **** 
 293:Core/Src/usart.c ****   /* USER CODE END USART1_MspDeInit 1 */
 294:Core/Src/usart.c ****   }
 295:Core/Src/usart.c ****   else if(uartHandle->Instance==USART2)
 741              		.loc 1 295 8 is_stmt 1 view .LVU267
 742              		.loc 1 295 10 is_stmt 0 view .LVU268
 743 000c 174A     		ldr	r2, .L51+4
 744 000e 9342     		cmp	r3, r2
 745 0010 14D0     		beq	.L50
 746              	.LVL37:
 747              	.L45:
 296:Core/Src/usart.c ****   {
 297:Core/Src/usart.c ****   /* USER CODE BEGIN USART2_MspDeInit 0 */
 298:Core/Src/usart.c **** 
 299:Core/Src/usart.c ****   /* USER CODE END USART2_MspDeInit 0 */
 300:Core/Src/usart.c ****     /* Peripheral clock disable */
 301:Core/Src/usart.c ****     __HAL_RCC_USART2_CLK_DISABLE();
 302:Core/Src/usart.c **** 
 303:Core/Src/usart.c ****     /**USART2 GPIO Configuration
 304:Core/Src/usart.c ****     PA2     ------> USART2_TX
 305:Core/Src/usart.c ****     PA3     ------> USART2_RX
 306:Core/Src/usart.c ****     */
 307:Core/Src/usart.c ****     HAL_GPIO_DeInit(GPIOA, GPIO_PIN_2|GPIO_PIN_3);
 308:Core/Src/usart.c **** 
 309:Core/Src/usart.c ****     /* USART2 DMA DeInit */
 310:Core/Src/usart.c ****     HAL_DMA_DeInit(uartHandle->hdmarx);
 311:Core/Src/usart.c ****     HAL_DMA_DeInit(uartHandle->hdmatx);
 312:Core/Src/usart.c **** 
 313:Core/Src/usart.c ****     /* USART2 interrupt Deinit */
 314:Core/Src/usart.c ****     HAL_NVIC_DisableIRQ(USART2_IRQn);
 315:Core/Src/usart.c ****   /* USER CODE BEGIN USART2_MspDeInit 1 */
 316:Core/Src/usart.c **** 
 317:Core/Src/usart.c ****   /* USER CODE END USART2_MspDeInit 1 */
 318:Core/Src/usart.c ****   }
 319:Core/Src/usart.c **** }
 748              		.loc 1 319 1 view .LVU269
 749 0012 10BD     		pop	{r4, pc}
 750              	.LVL38:
 751              	.L49:
 280:Core/Src/usart.c **** 
 752              		.loc 1 280 5 is_stmt 1 view .LVU270
 753 0014 02F55842 		add	r2, r2, #55296
 754 0018 136E     		ldr	r3, [r2, #96]
 755 001a 23F48043 		bic	r3, r3, #16384
 756 001e 1366     		str	r3, [r2, #96]
 286:Core/Src/usart.c **** 
 757              		.loc 1 286 5 view .LVU271
 758 0020 4FF4C061 		mov	r1, #1536
 759 0024 4FF09040 		mov	r0, #1207959552
 760              	.LVL39:
 286:Core/Src/usart.c **** 
 761              		.loc 1 286 5 is_stmt 0 view .LVU272
 762 0028 FFF7FEFF 		bl	HAL_GPIO_DeInit
 763              	.LVL40:
 289:Core/Src/usart.c ****     HAL_DMA_DeInit(uartHandle->hdmarx);
 764              		.loc 1 289 5 is_stmt 1 view .LVU273
ARM GAS  C:\Users\BIRDs\AppData\Local\Temp\ccJc2eCW.s 			page 23


 765 002c E06F     		ldr	r0, [r4, #124]
 766 002e FFF7FEFF 		bl	HAL_DMA_DeInit
 767              	.LVL41:
 290:Core/Src/usart.c ****   /* USER CODE BEGIN USART1_MspDeInit 1 */
 768              		.loc 1 290 5 view .LVU274
 769 0032 D4F88000 		ldr	r0, [r4, #128]
 770 0036 FFF7FEFF 		bl	HAL_DMA_DeInit
 771              	.LVL42:
 772 003a EAE7     		b	.L45
 773              	.LVL43:
 774              	.L50:
 301:Core/Src/usart.c **** 
 775              		.loc 1 301 5 view .LVU275
 776 003c 02F5E632 		add	r2, r2, #117760
 777 0040 936D     		ldr	r3, [r2, #88]
 778 0042 23F40033 		bic	r3, r3, #131072
 779 0046 9365     		str	r3, [r2, #88]
 307:Core/Src/usart.c **** 
 780              		.loc 1 307 5 view .LVU276
 781 0048 0C21     		movs	r1, #12
 782 004a 4FF09040 		mov	r0, #1207959552
 783              	.LVL44:
 307:Core/Src/usart.c **** 
 784              		.loc 1 307 5 is_stmt 0 view .LVU277
 785 004e FFF7FEFF 		bl	HAL_GPIO_DeInit
 786              	.LVL45:
 310:Core/Src/usart.c ****     HAL_DMA_DeInit(uartHandle->hdmatx);
 787              		.loc 1 310 5 is_stmt 1 view .LVU278
 788 0052 D4F88000 		ldr	r0, [r4, #128]
 789 0056 FFF7FEFF 		bl	HAL_DMA_DeInit
 790              	.LVL46:
 311:Core/Src/usart.c **** 
 791              		.loc 1 311 5 view .LVU279
 792 005a E06F     		ldr	r0, [r4, #124]
 793 005c FFF7FEFF 		bl	HAL_DMA_DeInit
 794              	.LVL47:
 314:Core/Src/usart.c ****   /* USER CODE BEGIN USART2_MspDeInit 1 */
 795              		.loc 1 314 5 view .LVU280
 796 0060 2620     		movs	r0, #38
 797 0062 FFF7FEFF 		bl	HAL_NVIC_DisableIRQ
 798              	.LVL48:
 799              		.loc 1 319 1 is_stmt 0 view .LVU281
 800 0066 D4E7     		b	.L45
 801              	.L52:
 802              		.align	2
 803              	.L51:
 804 0068 00380140 		.word	1073821696
 805 006c 00440040 		.word	1073759232
 806              		.cfi_endproc
 807              	.LFE332:
 809              		.global	hdma_usart2_tx
 810              		.section	.bss.hdma_usart2_tx,"aw",%nobits
 811              		.align	2
 814              	hdma_usart2_tx:
 815 0000 00000000 		.space	96
 815      00000000 
 815      00000000 
ARM GAS  C:\Users\BIRDs\AppData\Local\Temp\ccJc2eCW.s 			page 24


 815      00000000 
 815      00000000 
 816              		.global	hdma_usart2_rx
 817              		.section	.bss.hdma_usart2_rx,"aw",%nobits
 818              		.align	2
 821              	hdma_usart2_rx:
 822 0000 00000000 		.space	96
 822      00000000 
 822      00000000 
 822      00000000 
 822      00000000 
 823              		.global	hdma_usart1_rx
 824              		.section	.bss.hdma_usart1_rx,"aw",%nobits
 825              		.align	2
 828              	hdma_usart1_rx:
 829 0000 00000000 		.space	96
 829      00000000 
 829      00000000 
 829      00000000 
 829      00000000 
 830              		.global	hdma_usart1_tx
 831              		.section	.bss.hdma_usart1_tx,"aw",%nobits
 832              		.align	2
 835              	hdma_usart1_tx:
 836 0000 00000000 		.space	96
 836      00000000 
 836      00000000 
 836      00000000 
 836      00000000 
 837              		.global	huart2
 838              		.section	.bss.huart2,"aw",%nobits
 839              		.align	2
 842              	huart2:
 843 0000 00000000 		.space	148
 843      00000000 
 843      00000000 
 843      00000000 
 843      00000000 
 844              		.global	huart1
 845              		.section	.bss.huart1,"aw",%nobits
 846              		.align	2
 849              	huart1:
 850 0000 00000000 		.space	148
 850      00000000 
 850      00000000 
 850      00000000 
 850      00000000 
 851              		.text
 852              	.Letext0:
 853              		.file 2 "Drivers/CMSIS/Device/ST/STM32G4xx/Include/stm32g431xx.h"
 854              		.file 3 "E:/VSCODE_TOOL/arm-gnu-toolchain-14.2.rel1-mingw-w64-i686-arm-none-eabi/arm-none-eabi/inc
 855              		.file 4 "E:/VSCODE_TOOL/arm-gnu-toolchain-14.2.rel1-mingw-w64-i686-arm-none-eabi/arm-none-eabi/inc
 856              		.file 5 "Drivers/STM32G4xx_HAL_Driver/Inc/stm32g4xx_hal_def.h"
 857              		.file 6 "Drivers/STM32G4xx_HAL_Driver/Inc/stm32g4xx_hal_rcc_ex.h"
 858              		.file 7 "Drivers/STM32G4xx_HAL_Driver/Inc/stm32g4xx_hal_gpio.h"
 859              		.file 8 "Drivers/STM32G4xx_HAL_Driver/Inc/stm32g4xx_hal_dma.h"
 860              		.file 9 "Drivers/STM32G4xx_HAL_Driver/Inc/stm32g4xx_hal_uart.h"
ARM GAS  C:\Users\BIRDs\AppData\Local\Temp\ccJc2eCW.s 			page 25


 861              		.file 10 "Core/Inc/usart.h"
 862              		.file 11 "Drivers/STM32G4xx_HAL_Driver/Inc/stm32g4xx_hal_cortex.h"
 863              		.file 12 "Drivers/STM32G4xx_HAL_Driver/Inc/stm32g4xx_hal_uart_ex.h"
 864              		.file 13 "Core/Inc/main.h"
 865              		.file 14 "<built-in>"
ARM GAS  C:\Users\BIRDs\AppData\Local\Temp\ccJc2eCW.s 			page 26

